

Microchip MPLAB XC8 Assembler V2.40 build 20220703182018 
                                                                                               Sat Dec 03 13:34:30 2022

Microchip MPLAB XC8 C Compiler v2.40 (Free license) build 20220703182018 Og1 
     1                           	processor	18F57Q43
     2                           	fnconf	rparam,??,?,0
     3                           	pagewidth 120
     4                           	opt	flic
     5                           	psect	smallconst,global,reloc=2,class=SMALLCONST,delta=1,noexec
     6                           	psect	cinit,global,reloc=2,class=CODE,delta=1
     7                           	psect	bssCOMRAM,global,class=COMRAM,space=1,delta=1,lowdata,noexec
     8                           	psect	bssBANK5,global,class=BANK5,space=1,delta=1,lowdata,noexec
     9                           	psect	bssBANK6,global,class=BANK6,space=1,delta=1,lowdata,noexec
    10                           	psect	cstackBANK6,global,class=BANK6,space=1,delta=1,lowdata,noexec
    11                           	psect	cstackBANK5,global,class=BANK5,space=1,delta=1,lowdata,noexec
    12                           	psect	cstackCOMRAM,global,class=COMRAM,space=1,delta=1,lowdata,noexec
    13                           	psect	text0,global,reloc=2,class=CODE,delta=1
    14                           	psect	text1,global,reloc=2,class=CODE,delta=1
    15                           	psect	text2,global,reloc=2,class=CODE,delta=1,group=3
    16                           	psect	text3,global,reloc=2,class=CODE,delta=1,group=1
    17                           	psect	text4,global,reloc=2,class=CODE,delta=1,group=1
    18                           	psect	text5,global,reloc=2,class=CODE,delta=1,group=1
    19                           	psect	text6,global,reloc=2,class=CODE,delta=1,group=3
    20                           	psect	text7,global,reloc=2,class=CODE,delta=1,group=1
    21                           	psect	text8,global,reloc=2,class=CODE,delta=1,group=3
    22                           	psect	text9,global,reloc=2,class=CODE,delta=1,group=3
    23                           	psect	text10,global,reloc=2,class=CODE,delta=1,group=3
    24                           	psect	text11,global,reloc=2,class=CODE,delta=1,group=3
    25                           	psect	text12,global,reloc=2,class=CODE,delta=1,group=3
    26                           	psect	text13,global,reloc=2,class=CODE,delta=1,group=3
    27                           	psect	text14,global,reloc=2,class=CODE,delta=1,group=3
    28                           	psect	text15,global,reloc=2,class=CODE,delta=1,group=2
    29                           	psect	text16,global,reloc=2,class=CODE,delta=1,group=2
    30                           	psect	text17,global,reloc=2,class=CODE,delta=1,group=2
    31                           	psect	text18,global,reloc=2,class=CODE,delta=1,group=2
    32                           	psect	text19,global,reloc=2,class=CODE,delta=1,group=2
    33                           	psect	text20,global,reloc=2,class=CODE,delta=1,group=2
    34                           	psect	text21,global,reloc=2,class=CODE,delta=1,group=2
    35                           	psect	text22,global,reloc=2,class=CODE,delta=1,group=2
    36                           	psect	text23,global,reloc=2,class=CODE,delta=1,group=2
    37                           	psect	ivt0x8,global,reloc=2,class=CODE,delta=1,noexec,keep,optim=
    38                           	psect	intsave_regs,global,class=BIGRAM,space=1,delta=1,noexec
    39                           	psect	rparam,global,class=COMRAM,space=1,delta=1,noexec
    40                           	psect	idloc,global,abs,ovrld,class=IDLOC,space=5,delta=1,noexec
    41                           	psect	config,global,abs,ovrld,class=CONFIG,space=4,delta=1,noexec
    42   000000                     
    43                           ; Version 2.40
    44                           ; Generated 08/12/2021 GMT
    45                           ; 
    46                           ; Copyright © 2021, Microchip Technology Inc. and its subsidiaries ("Microchip")
    47                           ; All rights reserved.
    48                           ; 
    49                           ; This software is developed by Microchip Technology Inc. and its subsidiaries ("Microch
      +                          ip").
    50                           ; 
    51                           ; Redistribution and use in source and binary forms, with or without modification, are
    52                           ; permitted provided that the following conditions are met:
    53                           ; 
    54                           ;     1. Redistributions of source code must retain the above copyright notice, this lis
      +                          t of
    55                           ;        conditions and the following disclaimer.
    56                           ; 
    57                           ;     2. Redistributions in binary form must reproduce the above copyright notice, this 
      +                          list
    58                           ;        of conditions and the following disclaimer in the documentation and/or other
    59                           ;        materials provided with the distribution. Publication is not required when
    60                           ;        this file is used in an embedded application.
    61                           ; 
    62                           ;     3. Microchip's name may not be used to endorse or promote products derived from th
      +                          is
    63                           ;        software without specific prior written permission.
    64                           ; 
    65                           ; THIS SOFTWARE IS PROVIDED BY MICROCHIP "AS IS" AND ANY EXPRESS OR IMPLIED WARRANTIES,
    66                           ; INCLUDING, BUT NOT LIMITED TO, THE IMPLIED WARRANTIES OF MERCHANTABILITY AND FITNESS F
      +                          OR
    67                           ; PURPOSE ARE DISCLAIMED.  IN NO EVENT SHALL MICROCHIP BE LIABLE FOR ANY DIRECT, INDIREC
      +                          T,
    68                           ; INCIDENTAL, SPECIAL, EXEMPLARY, OR CONSEQUENTIAL DAMAGES (INCLUDING BUT NOT LIMITED TO
    69                           ; PROCUREMENT OF SUBSTITUTE GOODS OR SERVICES; LOSS OF USE, DATA OR PROFITS; OR BUSINESS
    70                           ; INTERRUPTION) HOWSOEVER CAUSED AND ON ANY THEORY OF LIABILITY, WHETHER IN CONTRACT, ST
      +                          RICT
    71                           ; LIABILITY, OR TORT (INCLUDING NEGLIGENCE OR OTHERWISE) ARISING IN ANY WAY OUT OF THE U
      +                          SE OF
    72                           ; THIS SOFTWARE, EVEN IF ADVISED OF THE POSSIBILITY OF SUCH DAMAGE.
    73                           ; 
    74                           ; 
    75                           ; Code-generator required, PIC18F57Q43 Definitions
    76                           ; 
    77                           ; SFR Addresses
    78   000000                     _OSCTUNE	set	176
    79   000000                     _OSCFRQ	set	177
    80   000000                     _OSCEN	set	179
    81   000000                     _TRISD	set	1225
    82   000000                     _TRISC	set	1224
    83   000000                     _TRISB	set	1223
    84   000000                     _LATC	set	1216
    85   000000                     _LATB	set	1215
    86   000000                     _ANSELFbits	set	1064
    87   000000                     _ANSELAbits	set	1024
    88   000000                     _TRISFbits	set	1227
    89   000000                     _TRISAbits	set	1222
    90   000000                     _PMD0	set	96
    91   000000                     _ACTCON	set	172
    92   000000                     _OSCCON1	set	173
    93   000000                     _RC4I2C	set	646
    94   000000                     _RC3I2C	set	647
    95   000000                     _RB2I2C	set	648
    96   000000                     _RB1I2C	set	649
    97   000000                     _ANSELA	set	1024
    98   000000                     _ANSELB	set	1032
    99   000000                     _ANSELC	set	1040
   100   000000                     _ANSELD	set	1048
   101   000000                     _LATA	set	1214
   102   000000                     _LATD	set	1217
   103   000000                     _LATE	set	1218
   104   000000                     _TRISA	set	1222
   105   000000                     _TRISE	set	1226
   106   000000                     _LATF	set	1219
   107   000000                     _INTCON0bits	set	1238
   108   000000                     _TRISF	set	1227
   109   000000                     _INLVLD	set	1052
   110   000000                     _SLRCOND	set	1051
   111   000000                     _ODCOND	set	1050
   112   000000                     _WPUD	set	1049
   113   000000                     _ANSELE	set	1056
   114   000000                     _INLVLC	set	1044
   115   000000                     _SLRCONC	set	1043
   116   000000                     _ODCONC	set	1042
   117   000000                     _WPUC	set	1041
   118   000000                     _INLVLB	set	1036
   119   000000                     _SLRCONB	set	1035
   120   000000                     _ODCONB	set	1034
   121   000000                     _WPUB	set	1033
   122   000000                     _INLVLE	set	1060
   123   000000                     _SLRCONE	set	1059
   124   000000                     _ODCONE	set	1058
   125   000000                     _WPUE	set	1057
   126   000000                     _ANSELF	set	1064
   127   000000                     _PIE1bits	set	1183
   128   000000                     _INLVLF	set	1068
   129   000000                     _SLRCONF	set	1067
   130   000000                     _ODCONF	set	1066
   131   000000                     _WPUF	set	1065
   132   000000                     _ADIF	set	9594
   133   000000                     _INLVLA	set	1028
   134   000000                     _SLRCONA	set	1027
   135   000000                     _ODCONA	set	1026
   136   000000                     _WPUA	set	1025
   137   000000                     _U1TXB	set	675
   138   000000                     _U1CON0bits	set	683
   139   000000                     _U1FIFObits	set	688
   140   000000                     _OSCCON3	set	175
   141   000000                     _RF0PPS	set	553
   142   000000                     _PMD3	set	99
   143   000000                     _PMD1	set	97
   144   000000                     _PMD8	set	104
   145   000000                     _PMD7	set	103
   146   000000                     _PMD6	set	102
   147   000000                     _PMD5	set	101
   148   000000                     _PMD4	set	100
   149   000000                     _ADRESH	set	1003
   150   000000                     _ADCON0bits	set	1011
   151   000000                     _ADREFbits	set	1016
   152   000000                     _ADPCH	set	1004
   153   000000                     _U1BRG	set	686
   154   000000                     _U1CON1bits	set	684
   155                           
   156                           	psect	smallconst
   157   002600                     __psmallconst:
   158                           	callstack 0
   159   002600  00                 	db	0
   160   002601                     STR_1:
   161   002601  20                 	db	32
   162   002602  20                 	db	32
   163   002603  25                 	db	37
   164   002604  66                 	db	102	;'f'
   165   002605  00                 	db	0
   166   002606                     STR_2:
   167   002606  69                 	db	105	;'i'
   168   002607  6E                 	db	110	;'n'
   169   002608  66                 	db	102	;'f'
   170   002609  00                 	db	0
   171   00260A                     STR_5:
   172   00260A  6E                 	db	110	;'n'
   173   00260B  61                 	db	97	;'a'
   174   00260C  6E                 	db	110	;'n'
   175   00260D  00                 	db	0
   176   00260E  00                 	db	0	; dummy byte at the end
   177   000000                     
   178                           ; #config settings
   179                           
   180                           	psect	cinit
   181   004B1C                     __pcinit:
   182                           	callstack 0
   183   004B1C                     start_initialization:
   184                           	callstack 0
   185   004B1C                     __initialization:
   186                           	callstack 0
   187                           
   188                           ; Clear objects allocated to BANK6 (80 bytes)
   189   004B1C  EE01  F200         	lfsr	0,__pbssBANK6
   190   004B20  0E50               	movlw	80
   191   004B22                     clear_0:
   192   004B22  6AEE               	clrf	postinc0,c
   193   004B24  06E8               	decf	wreg,f,c
   194   004B26  E1FD               	bnz	clear_0
   195                           
   196                           ; Clear objects allocated to BANK5 (11 bytes)
   197   004B28  EE01  F1AF         	lfsr	0,__pbssBANK5
   198   004B2C  0E0B               	movlw	11
   199   004B2E                     clear_1:
   200   004B2E  6AEE               	clrf	postinc0,c
   201   004B30  06E8               	decf	wreg,f,c
   202   004B32  E1FD               	bnz	clear_1
   203                           
   204                           ; Clear objects allocated to COMRAM (2 bytes)
   205   004B34  6A5F               	clrf	(__pbssCOMRAM+1)& (0+255),c
   206   004B36  6A5E               	clrf	__pbssCOMRAM& (0+255),c
   207                           
   208                           ;
   209                           ; Setup IVTBASE
   210                           ;
   211   004B38  0104               	movlb	4
   212   004B3A  0E08               	movlw	(ivt0x8_base shr 0)& (0+255)
   213   004B3C  6F5D               	movwf	93,b
   214   004B3E  0E00               	movlw	(ivt0x8_base shr (0+8))& (0+255)
   215   004B40  6F5E               	movwf	94,b
   216   004B42  0E00               	movlw	(ivt0x8_base shr (0+16))& (0+255)
   217   004B44  6F5F               	movwf	95,b
   218   004B46                     end_of_initialization:
   219                           	callstack 0
   220   004B46                     __end_of__initialization:
   221                           	callstack 0
   222   004B46  0100               	movlb	0
   223   004B48  EFE5  F024         	goto	_main	;jump to C main() function
   224                           
   225                           	psect	bssCOMRAM
   226   00055E                     __pbssCOMRAM:
   227                           	callstack 0
   228   00055E                     _prec:
   229                           	callstack 0
   230   00055E                     	ds	2
   231                           
   232                           	psect	bssBANK5
   233   0005AF                     __pbssBANK5:
   234                           	callstack 0
   235   0005AF                     floorf@F526:
   236                           	callstack 0
   237   0005AF                     	ds	4
   238   0005B3                     ___fpclassifyf@F465:
   239                           	callstack 0
   240   0005B3                     	ds	4
   241   0005B7                     _width:
   242                           	callstack 0
   243   0005B7                     	ds	2
   244   0005B9                     _flags:
   245                           	callstack 0
   246   0005B9                     	ds	1
   247                           
   248                           	psect	bssBANK6
   249   000600                     __pbssBANK6:
   250                           	callstack 0
   251   000600                     _dbuf:
   252                           	callstack 0
   253   000600                     	ds	80
   254                           
   255                           	psect	cstackBANK6
   256   000000                     __pcstackBANK6:
   257                           	callstack 0
   258   000000                     
   259                           ; 1 bytes @ 0x0
   260                           
   261                           	psect	cstackBANK5
   262   000560                     __pcstackBANK5:
   263                           	callstack 0
   264   000560                     efgtoa@ne:
   265                           	callstack 0
   266                           
   267                           ; 2 bytes @ 0x0
   268   000560                     	ds	2
   269   000562                     efgtoa@p:
   270                           	callstack 0
   271                           
   272                           ; 2 bytes @ 0x2
   273   000562                     	ds	2
   274   000564                     efgtoa@t:
   275                           	callstack 0
   276                           
   277                           ; 2 bytes @ 0x4
   278   000564                     	ds	2
   279   000566                     _efgtoa$1148:
   280                           	callstack 0
   281                           
   282                           ; 2 bytes @ 0x6
   283   000566                     	ds	2
   284   000568                     efgtoa@pp:
   285                           	callstack 0
   286                           
   287                           ; 1 bytes @ 0x8
   288   000568                     	ds	1
   289   000569                     efgtoa@mode:
   290                           	callstack 0
   291                           
   292                           ; 1 bytes @ 0x9
   293   000569                     	ds	1
   294   00056A                     efgtoa@nmode:
   295                           	callstack 0
   296                           
   297                           ; 1 bytes @ 0xA
   298   00056A                     	ds	1
   299   00056B                     efgtoa@d:
   300                           	callstack 0
   301                           
   302                           ; 2 bytes @ 0xB
   303   00056B                     	ds	2
   304   00056D                     efgtoa@m:
   305                           	callstack 0
   306                           
   307                           ; 2 bytes @ 0xD
   308   00056D                     	ds	2
   309   00056F                     efgtoa@e:
   310                           	callstack 0
   311                           
   312                           ; 2 bytes @ 0xF
   313   00056F                     	ds	2
   314   000571                     efgtoa@w:
   315                           	callstack 0
   316                           
   317                           ; 2 bytes @ 0x11
   318   000571                     	ds	2
   319   000573                     efgtoa@ou:
   320                           	callstack 0
   321                           
   322                           ; 4 bytes @ 0x13
   323   000573                     	ds	4
   324   000577                     efgtoa@i:
   325                           	callstack 0
   326                           
   327                           ; 2 bytes @ 0x17
   328   000577                     	ds	2
   329   000579                     efgtoa@h:
   330                           	callstack 0
   331                           
   332                           ; 4 bytes @ 0x19
   333   000579                     	ds	4
   334   00057D                     efgtoa@l:
   335                           	callstack 0
   336                           
   337                           ; 4 bytes @ 0x1D
   338   00057D                     	ds	4
   339   000581                     efgtoa@sign:
   340                           	callstack 0
   341                           
   342                           ; 1 bytes @ 0x21
   343   000581                     	ds	1
   344   000582                     efgtoa@n:
   345                           	callstack 0
   346                           
   347                           ; 2 bytes @ 0x22
   348   000582                     	ds	2
   349   000584                     efgtoa@g:
   350                           	callstack 0
   351                           
   352                           ; 4 bytes @ 0x24
   353   000584                     	ds	4
   354   000588                     efgtoa@u:
   355                           	callstack 0
   356                           
   357                           ; 4 bytes @ 0x28
   358   000588                     	ds	4
   359   00058C                     vfpfcnvrt@fp:
   360                           	callstack 0
   361                           
   362                           ; 2 bytes @ 0x2C
   363   00058C                     	ds	2
   364   00058E                     vfpfcnvrt@fmt:
   365                           	callstack 0
   366                           
   367                           ; 2 bytes @ 0x2E
   368   00058E                     	ds	2
   369   000590                     vfpfcnvrt@ap:
   370                           	callstack 0
   371                           
   372                           ; 2 bytes @ 0x30
   373   000590                     	ds	2
   374   000592                     ?_vfprintf:
   375                           	callstack 0
   376   000592                     vfprintf@fp:
   377                           	callstack 0
   378                           
   379                           ; 2 bytes @ 0x32
   380   000592                     	ds	2
   381   000594                     vfprintf@fmt:
   382                           	callstack 0
   383                           
   384                           ; 2 bytes @ 0x34
   385   000594                     	ds	2
   386   000596                     vfprintf@ap:
   387                           	callstack 0
   388                           
   389                           ; 2 bytes @ 0x36
   390   000596                     	ds	2
   391   000598                     ?_sprintf:
   392                           	callstack 0
   393   000598                     sprintf@s:
   394                           	callstack 0
   395                           
   396                           ; 2 bytes @ 0x38
   397   000598                     	ds	2
   398   00059A                     sprintf@fmt:
   399                           	callstack 0
   400                           
   401                           ; 2 bytes @ 0x3A
   402   00059A                     	ds	6
   403   0005A0                     ADC_ISR@arr:
   404                           	callstack 0
   405                           
   406                           ; 8 bytes @ 0x40
   407   0005A0                     	ds	8
   408   0005A8                     ADC_ISR@str:
   409                           	callstack 0
   410                           
   411                           ; 4 bytes @ 0x48
   412   0005A8                     	ds	4
   413   0005AC                     ADC_ISR@var:
   414                           	callstack 0
   415                           
   416                           ; 1 bytes @ 0x4C
   417   0005AC                     	ds	1
   418   0005AD                     ADC_ISR@i:
   419                           	callstack 0
   420                           
   421                           ; 2 bytes @ 0x4D
   422   0005AD                     	ds	2
   423                           
   424                           	psect	cstackCOMRAM
   425   000501                     __pcstackCOMRAM:
   426                           	callstack 0
   427   000501                     ?___fpclassifyf:
   428                           	callstack 0
   429   000501                     ?___fladd:
   430                           	callstack 0
   431   000501                     ?___fldiv:
   432                           	callstack 0
   433   000501                     ?_labs:
   434                           	callstack 0
   435   000501                     ?___flneg:
   436                           	callstack 0
   437   000501                     ?___fltol:
   438                           	callstack 0
   439   000501                     ?___xxtofl:
   440                           	callstack 0
   441   000501                     memcpy@d1:
   442                           	callstack 0
   443   000501                     fputc@c:
   444                           	callstack 0
   445   000501                     strcpy@dest:
   446                           	callstack 0
   447   000501                     ___fleq@ff1:
   448                           	callstack 0
   449   000501                     ___flneg@f1:
   450                           	callstack 0
   451   000501                     ___fltol@f1:
   452                           	callstack 0
   453   000501                     ___fladd@b:
   454                           	callstack 0
   455   000501                     ___fldiv@b:
   456                           	callstack 0
   457   000501                     ___xxtofl@val:
   458                           	callstack 0
   459   000501                     ___fpclassifyf@x:
   460                           	callstack 0
   461   000501                     labs@a:
   462                           	callstack 0
   463                           
   464                           ; 4 bytes @ 0x0
   465   000501                     	ds	2
   466   000503                     memcpy@s1:
   467                           	callstack 0
   468   000503                     fputc@fp:
   469                           	callstack 0
   470   000503                     strcpy@src:
   471                           	callstack 0
   472                           
   473                           ; 2 bytes @ 0x2
   474   000503                     	ds	2
   475   000505                     ??_fputc:
   476   000505                     ??___fpclassifyf:
   477   000505                     ??_labs:
   478   000505                     ??___fltol:
   479   000505                     ??___xxtofl:
   480   000505                     memcpy@n:
   481                           	callstack 0
   482   000505                     strcpy@s:
   483                           	callstack 0
   484   000505                     ___fleq@ff2:
   485                           	callstack 0
   486   000505                     ___fladd@a:
   487                           	callstack 0
   488   000505                     ___fldiv@a:
   489                           	callstack 0
   490                           
   491                           ; 4 bytes @ 0x4
   492   000505                     	ds	2
   493   000507                     memcpy@d:
   494                           	callstack 0
   495   000507                     strcpy@d:
   496                           	callstack 0
   497                           
   498                           ; 2 bytes @ 0x6
   499   000507                     	ds	2
   500   000509                     ??___fladd:
   501   000509                     ??___fldiv:
   502   000509                     ??___fleq:
   503   000509                     ___fltol@sign1:
   504                           	callstack 0
   505   000509                     ___xxtofl@sign:
   506                           	callstack 0
   507   000509                     ___fpclassifyf@e:
   508                           	callstack 0
   509   000509                     memcpy@s:
   510                           	callstack 0
   511                           
   512                           ; 2 bytes @ 0x8
   513   000509                     	ds	1
   514   00050A                     ___fltol@exp1:
   515                           	callstack 0
   516   00050A                     ___xxtofl@exp:
   517                           	callstack 0
   518   00050A                     fputs@s:
   519                           	callstack 0
   520                           
   521                           ; 2 bytes @ 0x9
   522   00050A                     	ds	1
   523   00050B                     memcpy@tmp:
   524                           	callstack 0
   525   00050B                     ___xxtofl@arg:
   526                           	callstack 0
   527   00050B                     ___fpclassifyf@u:
   528                           	callstack 0
   529                           
   530                           ; 4 bytes @ 0xA
   531   00050B                     	ds	1
   532   00050C                     fputs@fp:
   533                           	callstack 0
   534                           
   535                           ; 2 bytes @ 0xB
   536   00050C                     	ds	1
   537   00050D                     ___fladd@signs:
   538                           	callstack 0
   539   00050D                     ___fldiv@rem:
   540                           	callstack 0
   541                           
   542                           ; 4 bytes @ 0xC
   543   00050D                     	ds	1
   544   00050E                     ___fladd@aexp:
   545                           	callstack 0
   546   00050E                     fputs@c:
   547                           	callstack 0
   548                           
   549                           ; 1 bytes @ 0xD
   550   00050E                     	ds	1
   551   00050F                     ?___flmul:
   552                           	callstack 0
   553   00050F                     ___fladd@bexp:
   554                           	callstack 0
   555   00050F                     fputs@i:
   556                           	callstack 0
   557   00050F                     ___flmul@b:
   558                           	callstack 0
   559                           
   560                           ; 4 bytes @ 0xE
   561   00050F                     	ds	1
   562   000510                     ___fladd@grs:
   563                           	callstack 0
   564                           
   565                           ; 1 bytes @ 0xF
   566   000510                     	ds	1
   567   000511                     ___fldiv@sign:
   568                           	callstack 0
   569   000511                     pad@fp:
   570                           	callstack 0
   571                           
   572                           ; 2 bytes @ 0x10
   573   000511                     	ds	1
   574   000512                     ___fldiv@new_exp:
   575                           	callstack 0
   576                           
   577                           ; 2 bytes @ 0x11
   578   000512                     	ds	1
   579   000513                     pad@buf:
   580                           	callstack 0
   581   000513                     ___flmul@a:
   582                           	callstack 0
   583                           
   584                           ; 4 bytes @ 0x12
   585   000513                     	ds	1
   586   000514                     ___fldiv@grs:
   587                           	callstack 0
   588                           
   589                           ; 4 bytes @ 0x13
   590   000514                     	ds	1
   591   000515                     pad@p:
   592                           	callstack 0
   593                           
   594                           ; 2 bytes @ 0x14
   595   000515                     	ds	2
   596   000517                     ??___flmul:
   597   000517                     ??_pad:
   598                           
   599                           ; 1 bytes @ 0x16
   600   000517                     	ds	1
   601   000518                     ___fldiv@bexp:
   602                           	callstack 0
   603   000518                     pad@i:
   604                           	callstack 0
   605                           
   606                           ; 2 bytes @ 0x17
   607   000518                     	ds	1
   608   000519                     ___fldiv@aexp:
   609                           	callstack 0
   610                           
   611                           ; 1 bytes @ 0x18
   612   000519                     	ds	1
   613   00051A                     ?_floorf:
   614                           	callstack 0
   615   00051A                     pad@w:
   616                           	callstack 0
   617   00051A                     floorf@x:
   618                           	callstack 0
   619                           
   620                           ; 4 bytes @ 0x19
   621   00051A                     	ds	1
   622   00051B                     ___flmul@sign:
   623                           	callstack 0
   624                           
   625                           ; 1 bytes @ 0x1A
   626   00051B                     	ds	1
   627   00051C                     ___flmul@grs:
   628                           	callstack 0
   629                           
   630                           ; 4 bytes @ 0x1B
   631   00051C                     	ds	2
   632   00051E                     ??_floorf:
   633                           
   634                           ; 1 bytes @ 0x1D
   635   00051E                     	ds	2
   636   000520                     ___flmul@aexp:
   637                           	callstack 0
   638                           
   639                           ; 1 bytes @ 0x1F
   640   000520                     	ds	1
   641   000521                     ___flmul@bexp:
   642                           	callstack 0
   643                           
   644                           ; 1 bytes @ 0x20
   645   000521                     	ds	1
   646   000522                     ___flmul@prod:
   647                           	callstack 0
   648                           
   649                           ; 4 bytes @ 0x21
   650   000522                     	ds	2
   651   000524                     floorf@m:
   652                           	callstack 0
   653                           
   654                           ; 4 bytes @ 0x23
   655   000524                     	ds	2
   656   000526                     ___flmul@temp:
   657                           	callstack 0
   658                           
   659                           ; 2 bytes @ 0x25
   660   000526                     	ds	2
   661   000528                     ?___flsub:
   662                           	callstack 0
   663   000528                     floorf@e:
   664                           	callstack 0
   665   000528                     ___flge@ff1:
   666                           	callstack 0
   667   000528                     ___flsub@b:
   668                           	callstack 0
   669                           
   670                           ; 4 bytes @ 0x27
   671   000528                     	ds	2
   672   00052A                     floorf@u:
   673                           	callstack 0
   674                           
   675                           ; 4 bytes @ 0x29
   676   00052A                     	ds	2
   677   00052C                     ___flge@ff2:
   678                           	callstack 0
   679   00052C                     ___flsub@a:
   680                           	callstack 0
   681                           
   682                           ; 4 bytes @ 0x2B
   683   00052C                     	ds	4
   684   000530                     ??___flge:
   685                           
   686                           ; 1 bytes @ 0x2F
   687   000530                     	ds	4
   688   000534                     efgtoa@fp:
   689                           	callstack 0
   690                           
   691                           ; 2 bytes @ 0x33
   692   000534                     	ds	2
   693   000536                     efgtoa@f:
   694                           	callstack 0
   695                           
   696                           ; 4 bytes @ 0x35
   697   000536                     	ds	4
   698   00053A                     efgtoa@c:
   699                           	callstack 0
   700                           
   701                           ; 1 bytes @ 0x39
   702   00053A                     	ds	1
   703   00053B                     ??_efgtoa:
   704                           
   705                           ; 1 bytes @ 0x3A
   706   00053B                     	ds	2
   707   00053D                     ??_vfpfcnvrt:
   708                           
   709                           ; 1 bytes @ 0x3C
   710   00053D                     	ds	2
   711   00053F                     vfpfcnvrt@convarg:
   712                           	callstack 0
   713                           
   714                           ; 8 bytes @ 0x3E
   715   00053F                     	ds	8
   716   000547                     vfpfcnvrt@c:
   717                           	callstack 0
   718                           
   719                           ; 1 bytes @ 0x46
   720   000547                     	ds	1
   721   000548                     vfpfcnvrt@cp:
   722                           	callstack 0
   723                           
   724                           ; 2 bytes @ 0x47
   725   000548                     	ds	2
   726   00054A                     vfprintf@cfmt:
   727                           	callstack 0
   728                           
   729                           ; 2 bytes @ 0x49
   730   00054A                     	ds	2
   731   00054C                     sprintf@ap:
   732                           	callstack 0
   733                           
   734                           ; 2 bytes @ 0x4B
   735   00054C                     	ds	2
   736   00054E                     sprintf@f:
   737                           	callstack 0
   738                           
   739                           ; 11 bytes @ 0x4D
   740   00054E                     	ds	11
   741   000559                     ??_ADC_ISR:
   742                           
   743                           ; 1 bytes @ 0x58
   744   000559                     	ds	5
   745                           
   746 ;;
   747 ;;Main: autosize = 0, tempsize = 0, incstack = 0, save=0
   748 ;;
   749 ;; *************** function _main *****************
   750 ;; Defined at:
   751 ;;		line 23 in file "main.c"
   752 ;; Parameters:    Size  Location     Type
   753 ;;		None
   754 ;; Auto vars:     Size  Location     Type
   755 ;;		None
   756 ;; Return value:  Size  Location     Type
   757 ;;                  1    wreg      void 
   758 ;; Registers used:
   759 ;;		wreg, status,2
   760 ;; Tracked objects:
   761 ;;		On entry : 0/0
   762 ;;		On exit  : 0/0
   763 ;;		Unchanged: 0/0
   764 ;; Data sizes:     COMRAM   BANK5   BANK6   BANK7   BANK8   BANK9  BANK10  BANK11  BANK12  BANK13  BANK14  BANK15  BANK1
      +6  BANK17  BANK18  BANK19  BANK20  BANK21  BANK22  BANK23  BANK24  BANK25  BANK26  BANK27  BANK28  BANK29  BANK30  BANK3
      +1  BANK32  BANK33  BANK34  BANK35  BANK36
   765 ;;      Params:         0       0       0       0       0       0       0       0       0       0       0       0       
      +0       0       0       0       0       0       0       0       0       0       0       0       0       0       0       
      +0       0       0       0       0       0
   766 ;;      Locals:         0       0       0       0       0       0       0       0       0       0       0       0       
      +0       0       0       0       0       0       0       0       0       0       0       0       0       0       0       
      +0       0       0       0       0       0
   767 ;;      Temps:          0       0       0       0       0       0       0       0       0       0       0       0       
      +0       0       0       0       0       0       0       0       0       0       0       0       0       0       0       
      +0       0       0       0       0       0
   768 ;;      Totals:         0       0       0       0       0       0       0       0       0       0       0       0       
      +0       0       0       0       0       0       0       0       0       0       0       0       0       0       0       
      +0       0       0       0       0       0
   769 ;;Total ram usage:        0 bytes
   770 ;; Hardware stack levels required when called: 9
   771 ;; This function calls:
   772 ;;		Nothing
   773 ;; This function is called by:
   774 ;;		Startup code after reset
   775 ;; This function uses a non-reentrant model
   776 ;;
   777                           
   778                           	psect	text0
   779   0049CA                     __ptext0:
   780                           	callstack 0
   781   0049CA                     _main:
   782                           	callstack 118
   783   0049CA                     
   784                           ;main.c: 28:     TRISAbits.TRISA0 = 1;
   785   0049CA  80C6               	bsf	198,0,c	;volatile
   786                           
   787                           ;main.c: 29:     ANSELAbits.ANSELA0 = 1;
   788   0049CC  0104               	movlb	4	; () banked
   789   0049CE  8100               	bsf	0,0,b	;volatile
   790   0049D0                     
   791                           ; BSR set to: 4
   792                           ;main.c: 39:     ADPCH = 000000;
   793   0049D0  0E00               	movlw	0
   794   0049D2  0103               	movlb	3	; () banked
   795   0049D4  6FEC               	movwf	236,b	;volatile
   796                           
   797                           ;main.c: 42:     ADREFbits.NREF = 0;
   798   0049D6  0E0F               	movlw	-241
   799   0049D8  17F8               	andwf	248,f,b	;volatile
   800                           
   801                           ;main.c: 43:     ADREFbits.PREF = 00;
   802   0049DA  0EF0               	movlw	-16
   803   0049DC  17F8               	andwf	248,f,b	;volatile
   804   0049DE                     
   805                           ; BSR set to: 3
   806                           ;main.c: 46:     ADCON0bits.CS = 0;
   807   0049DE  99F3               	bcf	243,4,b	;volatile
   808   0049E0                     
   809                           ; BSR set to: 3
   810                           ;main.c: 49:     PIE1bits.ADIE = 1;
   811   0049E0  849F               	bsf	159,2,c	;volatile
   812                           
   813                           ;main.c: 52:     ADCON0bits.FM = 0;
   814   0049E2  0EF3               	movlw	-13
   815   0049E4  17F3               	andwf	243,f,b	;volatile
   816   0049E6                     
   817                           ; BSR set to: 3
   818                           ;main.c: 55:     ADCON0bits.CONT = 1;
   819   0049E6  8DF3               	bsf	243,6,b	;volatile
   820   0049E8                     
   821                           ; BSR set to: 3
   822                           ;main.c: 62:     ADCON0bits.ON = 1;
   823   0049E8  8FF3               	bsf	243,7,b	;volatile
   824   0049EA                     
   825                           ; BSR set to: 3
   826                           ;main.c: 65:     ADCON0bits.GO = 1;
   827   0049EA  81F3               	bsf	243,0,b	;volatile
   828   0049EC                     
   829                           ; BSR set to: 3
   830                           ;main.c: 71:     TRISFbits.TRISF0 = 0;
   831   0049EC  90CB               	bcf	203,0,c	;volatile
   832   0049EE                     
   833                           ; BSR set to: 3
   834                           ;main.c: 72:     ANSELFbits.ANSELF0 = 0;
   835   0049EE  0104               	movlb	4	; () banked
   836   0049F0  9128               	bcf	40,0,b	;volatile
   837                           
   838                           ;main.c: 73:     RF0PPS = 0x20;
   839   0049F2  0E20               	movlw	32
   840   0049F4  0102               	movlb	2	; () banked
   841   0049F6  6F29               	movwf	41,b	;volatile
   842                           
   843                           ;main.c: 77:     U1CON0bits.MODE = 0000;
   844   0049F8  0EF0               	movlw	-16
   845   0049FA  17AB               	andwf	171,f,b	;volatile
   846   0049FC                     
   847                           ; BSR set to: 2
   848                           ;main.c: 78:     U1CON1bits.ON = 1;
   849   0049FC  8FAC               	bsf	172,7,b	;volatile
   850   0049FE                     
   851                           ; BSR set to: 2
   852                           ;main.c: 79:     U1CON0bits.U1BRGS = 1;
   853   0049FE  8FAB               	bsf	171,7,b	;volatile
   854                           
   855                           ;main.c: 80:     U1BRG = 103;
   856   004A00  0E00               	movlw	0
   857   004A02  6FAF               	movwf	175,b	;volatile
   858   004A04  0E67               	movlw	103
   859   004A06  6FAE               	movwf	174,b	;volatile
   860   004A08                     
   861                           ; BSR set to: 2
   862                           ;main.c: 86:     INTCON0bits.GIEH = 1;
   863   004A08  8ED6               	bsf	214,7,c	;volatile
   864   004A0A                     
   865                           ; BSR set to: 2
   866                           ;main.c: 87:     INTCON0bits.GIEL = 1;
   867   004A0A  8CD6               	bsf	214,6,c	;volatile
   868   004A0C                     
   869                           ; BSR set to: 2
   870                           ;main.c: 88:     INTCON0bits.IPEN = 1;
   871   004A0C  8AD6               	bsf	214,5,c	;volatile
   872   004A0E                     l191:
   873   004A0E  EF07  F025         	goto	l191
   874   004A12  EF0D  F000         	goto	start
   875   004A16                     __end_of_main:
   876                           	callstack 0
   877                           
   878 ;; *************** function _ADC_ISR *****************
   879 ;; Defined at:
   880 ;;		line 8 in file "main.c"
   881 ;; Parameters:    Size  Location     Type
   882 ;;		None
   883 ;; Auto vars:     Size  Location     Type
   884 ;;  i               2   77[BANK5 ] int 
   885 ;;  arr             8   64[BANK5 ] unsigned char [8]
   886 ;;  str             4   72[BANK5 ] float 
   887 ;;  var             1   76[BANK5 ] unsigned char 
   888 ;; Return value:  Size  Location     Type
   889 ;;                  1    wreg      void 
   890 ;; Registers used:
   891 ;;		wreg, fsr1l, fsr1h, fsr2l, fsr2h, status,2, status,0, tblptrl, tblptrh, tblptru, prodl, prodh, cstack
   892 ;; Tracked objects:
   893 ;;		On entry : 0/0
   894 ;;		On exit  : 0/0
   895 ;;		Unchanged: 0/0
   896 ;; Data sizes:     COMRAM   BANK5   BANK6   BANK7   BANK8   BANK9  BANK10  BANK11  BANK12  BANK13  BANK14  BANK15  BANK1
      +6  BANK17  BANK18  BANK19  BANK20  BANK21  BANK22  BANK23  BANK24  BANK25  BANK26  BANK27  BANK28  BANK29  BANK30  BANK3
      +1  BANK32  BANK33  BANK34  BANK35  BANK36
   897 ;;      Params:         0       0       0       0       0       0       0       0       0       0       0       0       
      +0       0       0       0       0       0       0       0       0       0       0       0       0       0       0       
      +0       0       0       0       0       0
   898 ;;      Locals:         0      15       0       0       0       0       0       0       0       0       0       0       
      +0       0       0       0       0       0       0       0       0       0       0       0       0       0       0       
      +0       0       0       0       0       0
   899 ;;      Temps:          5       0       0       0       0       0       0       0       0       0       0       0       
      +0       0       0       0       0       0       0       0       0       0       0       0       0       0       0       
      +0       0       0       0       0       0
   900 ;;      Totals:         5      15       0       0       0       0       0       0       0       0       0       0       
      +0       0       0       0       0       0       0       0       0       0       0       0       0       0       0       
      +0       0       0       0       0       0
   901 ;;Total ram usage:       20 bytes
   902 ;; Hardware stack levels used: 1
   903 ;; Hardware stack levels required when called: 8
   904 ;; This function calls:
   905 ;;		___flmul
   906 ;;		___xxtofl
   907 ;;		_sprintf
   908 ;; This function is called by:
   909 ;;		Interrupt level 2
   910 ;; This function uses a non-reentrant model
   911 ;;
   912                           
   913                           	psect	text1
   914   00458E                     __ptext1:
   915                           	callstack 0
   916   00458E                     _ADC_ISR:
   917                           	callstack 118
   918                           
   919                           ;incstack = 0
   920   00458E  C4F6 F55A          	movff	tblptrl,??_ADC_ISR+1
   921   004592  C4F7 F55B          	movff	tblptrh,??_ADC_ISR+2
   922   004596  C4F8 F55C          	movff	tblptru,??_ADC_ISR+3
   923   00459A  C4F5 F55D          	movff	tablat,??_ADC_ISR+4
   924   00459E                     
   925                           ;main.c: 9:     U1FIFObits.TXBE = 1;
   926   00459E  0102               	movlb	2	; () banked
   927   0045A0  8BB0               	bsf	176,5,b	;volatile
   928                           
   929                           ;main.c: 10:     uint8_t var = ADRESH;
   930   0045A2  C3EB F5AC          	movff	1003,ADC_ISR@var	;volatile
   931   0045A6                     
   932                           ; BSR set to: 2
   933                           ;main.c: 11:     float str = var*0.0129;
   934   0045A6  0105               	movlb	5	; () banked
   935   0045A8  51AC               	movf	ADC_ISR@var& (0+255),w,b
   936   0045AA  6E01               	movwf	___xxtofl@val^(0+1280),c
   937   0045AC  6A02               	clrf	(___xxtofl@val+1)^(0+1280),c
   938   0045AE  6A03               	clrf	(___xxtofl@val+2)^(0+1280),c
   939   0045B0  6A04               	clrf	(___xxtofl@val+3)^(0+1280),c
   940   0045B2  0E01               	movlw	1
   941   0045B4  EC69  F020         	call	___xxtofl
   942   0045B8  C501  F50F         	movff	?___xxtofl,___flmul@b
   943   0045BC  C502  F510         	movff	?___xxtofl+1,___flmul@b+1
   944   0045C0  C503  F511         	movff	?___xxtofl+2,___flmul@b+2
   945   0045C4  C504  F512         	movff	?___xxtofl+3,___flmul@b+3
   946   0045C8  0E86               	movlw	134
   947   0045CA  6E13               	movwf	___flmul@a^(0+1280),c
   948   0045CC  0E5A               	movlw	90
   949   0045CE  6E14               	movwf	(___flmul@a+1)^(0+1280),c
   950   0045D0  0E53               	movlw	83
   951   0045D2  6E15               	movwf	(___flmul@a+2)^(0+1280),c
   952   0045D4  0E3C               	movlw	60
   953   0045D6  6E16               	movwf	(___flmul@a+3)^(0+1280),c
   954   0045D8  EC66  F01A         	call	___flmul	;wreg free
   955   0045DC  C50F  F5A8         	movff	?___flmul,ADC_ISR@str
   956   0045E0  C510  F5A9         	movff	?___flmul+1,ADC_ISR@str+1
   957   0045E4  C511  F5AA         	movff	?___flmul+2,ADC_ISR@str+2
   958   0045E8  C512  F5AB         	movff	?___flmul+3,ADC_ISR@str+3
   959   0045EC                     
   960                           ;main.c: 12:     char arr[8];;main.c: 13:     sprintf(arr, "  %f", str);
   961   0045EC  0EA0               	movlw	low ADC_ISR@arr
   962   0045EE  0105               	movlb	5	; () banked
   963   0045F0  6F98               	movwf	sprintf@s& (0+255),b
   964   0045F2  0E05               	movlw	high ADC_ISR@arr
   965   0045F4  6F99               	movwf	(sprintf@s+1)& (0+255),b
   966   0045F6  0E01               	movlw	low STR_1
   967   0045F8  6F9A               	movwf	sprintf@fmt& (0+255),b
   968   0045FA  0E26               	movlw	high STR_1
   969   0045FC  6F9B               	movwf	(sprintf@fmt+1)& (0+255),b
   970   0045FE  C5A8  F59C         	movff	ADC_ISR@str,?_sprintf+4
   971   004602  C5A9  F59D         	movff	ADC_ISR@str+1,?_sprintf+5
   972   004606  C5AA  F59E         	movff	ADC_ISR@str+2,?_sprintf+6
   973   00460A  C5AB  F59F         	movff	ADC_ISR@str+3,?_sprintf+7
   974   00460E  EC94  F024         	call	_sprintf	;wreg free
   975   004612                     
   976                           ;main.c: 14:     for(int i=0; i<8; i++){
   977   004612  0E00               	movlw	0
   978   004614  0105               	movlb	5	; () banked
   979   004616  6FAE               	movwf	(ADC_ISR@i+1)& (0+255),b
   980   004618  0E00               	movlw	0
   981   00461A  6FAD               	movwf	ADC_ISR@i& (0+255),b
   982   00461C                     i2l184:
   983                           
   984                           ; BSR set to: 5
   985                           ;main.c: 15:         U1CON0bits.TXEN = 1;
   986   00461C  0102               	movlb	2	; () banked
   987   00461E  8BAB               	bsf	171,5,b	;volatile
   988   004620                     
   989                           ; BSR set to: 2
   990                           ;main.c: 16:         U1TXB = arr[i];
   991   004620  0EA0               	movlw	low ADC_ISR@arr
   992   004622  0105               	movlb	5	; () banked
   993   004624  25AD               	addwf	ADC_ISR@i& (0+255),w,b
   994   004626  6ED9               	movwf	fsr2l,c
   995   004628  0E05               	movlw	high ADC_ISR@arr
   996   00462A  21AE               	addwfc	(ADC_ISR@i+1)& (0+255),w,b
   997   00462C  6EDA               	movwf	fsr2h,c
   998   00462E  50DF               	movf	indf2,w,c
   999   004630  0102               	movlb	2	; () banked
  1000   004632  6FA3               	movwf	163,b	;volatile
  1001   004634                     
  1002                           ; BSR set to: 2
  1003                           ;main.c: 17:         _delay((unsigned long)((50)*(1000000/4000.0)));
  1004   004634  0E11               	movlw	17
  1005   004636  6E59               	movwf	??_ADC_ISR^(0+1280),c
  1006   004638  0E3A               	movlw	58
  1007   00463A                     i2u341_47:
  1008   00463A  2EE8               	decfsz	wreg,f,c
  1009   00463C  D7FE               	bra	i2u341_47
  1010   00463E  2E59               	decfsz	??_ADC_ISR^(0+1280),f,c
  1011   004640  D7FC               	bra	i2u341_47
  1012   004642  D000               	nop2	
  1013   004644                     
  1014                           ;main.c: 18:         U1CON0bits.TXEN = 0;
  1015   004644  0102               	movlb	2	; () banked
  1016   004646  9BAB               	bcf	171,5,b	;volatile
  1017   004648                     
  1018                           ; BSR set to: 2
  1019                           ;main.c: 19:     }
  1020   004648  0105               	movlb	5	; () banked
  1021   00464A  4BAD               	infsnz	ADC_ISR@i& (0+255),f,b
  1022   00464C  2BAE               	incf	(ADC_ISR@i+1)& (0+255),f,b
  1023   00464E                     
  1024                           ; BSR set to: 5
  1025   00464E  BFAE               	btfsc	(ADC_ISR@i+1)& (0+255),7,b
  1026   004650  EF33  F023         	goto	i2u340_41
  1027   004654  51AE               	movf	(ADC_ISR@i+1)& (0+255),w,b
  1028   004656  E109               	bnz	i2u340_40
  1029   004658  0E08               	movlw	8
  1030   00465A  5DAD               	subwf	ADC_ISR@i& (0+255),w,b
  1031   00465C  A0D8               	btfss	status,0,c
  1032   00465E  EF33  F023         	goto	i2u340_41
  1033   004662  EF35  F023         	goto	i2u340_40
  1034   004666                     i2u340_41:
  1035   004666  EF0E  F023         	goto	i2l184
  1036   00466A                     i2u340_40:
  1037   00466A                     
  1038                           ; BSR set to: 5
  1039                           ;main.c: 20:     ADIF = 0;
  1040   00466A  94AF               	bcf	1199,2,c	;volatile
  1041   00466C                     
  1042                           ; BSR set to: 5
  1043   00466C  C55D  F4F5         	movff	??_ADC_ISR+4,tablat
  1044   004670  C55C  F4F8         	movff	??_ADC_ISR+3,tblptru
  1045   004674  C55B  F4F7         	movff	??_ADC_ISR+2,tblptrh
  1046   004678  C55A  F4F6         	movff	??_ADC_ISR+1,tblptrl
  1047   00467C  0011               	retfie		f
  1048   00467E                     __end_of_ADC_ISR:
  1049                           	callstack 0
  1050                           
  1051 ;; *************** function _sprintf *****************
  1052 ;; Defined at:
  1053 ;;		line 9 in file "D:\XC8\pic\sources\c99\common\nf_sprintf.c"
  1054 ;; Parameters:    Size  Location     Type
  1055 ;;  s               2   56[BANK5 ] PTR unsigned char 
  1056 ;;		 -> ADC_ISR@arr(8), 
  1057 ;;  fmt             2   58[BANK5 ] PTR const unsigned char 
  1058 ;;		 -> STR_1(5), 
  1059 ;; Auto vars:     Size  Location     Type
  1060 ;;  f              11   77[COMRAM] struct _IO_FILE
  1061 ;;  ap              2   75[COMRAM] PTR void [1]
  1062 ;;		 -> ?_sprintf(2), 
  1063 ;;  ret             2    0        int 
  1064 ;; Return value:  Size  Location     Type
  1065 ;;                  2   56[BANK5 ] int 
  1066 ;; Registers used:
  1067 ;;		wreg, fsr1l, fsr1h, fsr2l, fsr2h, status,2, status,0, tblptrl, tblptrh, tblptru, prodl, prodh, cstack
  1068 ;; Tracked objects:
  1069 ;;		On entry : 0/0
  1070 ;;		On exit  : 0/0
  1071 ;;		Unchanged: 0/0
  1072 ;; Data sizes:     COMRAM   BANK5   BANK6   BANK7   BANK8   BANK9  BANK10  BANK11  BANK12  BANK13  BANK14  BANK15  BANK1
      +6  BANK17  BANK18  BANK19  BANK20  BANK21  BANK22  BANK23  BANK24  BANK25  BANK26  BANK27  BANK28  BANK29  BANK30  BANK3
      +1  BANK32  BANK33  BANK34  BANK35  BANK36
  1073 ;;      Params:         0       8       0       0       0       0       0       0       0       0       0       0       
      +0       0       0       0       0       0       0       0       0       0       0       0       0       0       0       
      +0       0       0       0       0       0
  1074 ;;      Locals:        13       0       0       0       0       0       0       0       0       0       0       0       
      +0       0       0       0       0       0       0       0       0       0       0       0       0       0       0       
      +0       0       0       0       0       0
  1075 ;;      Temps:          0       0       0       0       0       0       0       0       0       0       0       0       
      +0       0       0       0       0       0       0       0       0       0       0       0       0       0       0       
      +0       0       0       0       0       0
  1076 ;;      Totals:        13       8       0       0       0       0       0       0       0       0       0       0       
      +0       0       0       0       0       0       0       0       0       0       0       0       0       0       0       
      +0       0       0       0       0       0
  1077 ;;Total ram usage:       21 bytes
  1078 ;; Hardware stack levels used: 1
  1079 ;; Hardware stack levels required when called: 7
  1080 ;; This function calls:
  1081 ;;		_vfprintf
  1082 ;; This function is called by:
  1083 ;;		_ADC_ISR
  1084 ;; This function uses a non-reentrant model
  1085 ;;
  1086                           
  1087                           	psect	text2
  1088   004928                     __ptext2:
  1089                           	callstack 0
  1090   004928                     _sprintf:
  1091                           	callstack 118
  1092   004928  0E9C               	movlw	low (?_sprintf+4)
  1093   00492A  6E4C               	movwf	sprintf@ap^(0+1280),c
  1094   00492C  0E05               	movlw	high (?_sprintf+4)
  1095   00492E  6E4D               	movwf	(sprintf@ap+1)^(0+1280),c
  1096   004930  C598  F54E         	movff	sprintf@s,sprintf@f
  1097   004934  C599  F54F         	movff	sprintf@s+1,sprintf@f+1
  1098   004938  0E00               	movlw	0
  1099   00493A  6E52               	movwf	(sprintf@f+4)^(0+1280),c
  1100   00493C  0E00               	movlw	0
  1101   00493E  6E51               	movwf	(sprintf@f+3)^(0+1280),c
  1102   004940  0E00               	movlw	0
  1103   004942  6E58               	movwf	(sprintf@f+10)^(0+1280),c
  1104   004944  0E00               	movlw	0
  1105   004946  6E57               	movwf	(sprintf@f+9)^(0+1280),c
  1106   004948  0E4E               	movlw	low sprintf@f
  1107   00494A  0105               	movlb	5	; () banked
  1108   00494C  6F92               	movwf	vfprintf@fp& (0+255),b
  1109   00494E  0E05               	movlw	high sprintf@f
  1110   004950  6F93               	movwf	(vfprintf@fp+1)& (0+255),b
  1111   004952  C59A  F594         	movff	sprintf@fmt,vfprintf@fmt
  1112   004956  C59B  F595         	movff	sprintf@fmt+1,vfprintf@fmt+1
  1113   00495A  0E4C               	movlw	low sprintf@ap
  1114   00495C  6F96               	movwf	vfprintf@ap& (0+255),b
  1115   00495E  0E05               	movlw	high sprintf@ap
  1116   004960  6F97               	movwf	(vfprintf@ap+1)& (0+255),b
  1117   004962  EC69  F024         	call	_vfprintf	;wreg free
  1118   004966  5051               	movf	(sprintf@f+3)^(0+1280),w,c
  1119   004968  0105               	movlb	5	; () banked
  1120   00496A  2598               	addwf	sprintf@s& (0+255),w,b
  1121   00496C  6ED9               	movwf	fsr2l,c
  1122   00496E  5052               	movf	(sprintf@f+4)^(0+1280),w,c
  1123   004970  2199               	addwfc	(sprintf@s+1)& (0+255),w,b
  1124   004972  6EDA               	movwf	fsr2h,c
  1125   004974  0E00               	movlw	0
  1126   004976  6EDF               	movwf	indf2,c
  1127   004978                     
  1128                           ; BSR set to: 5
  1129   004978  0012               	return		;funcret
  1130   00497A                     __end_of_sprintf:
  1131                           	callstack 0
  1132                           
  1133 ;; *************** function _vfprintf *****************
  1134 ;; Defined at:
  1135 ;;		line 1520 in file "D:\XC8\pic\sources\c99\common\doprnt.c"
  1136 ;; Parameters:    Size  Location     Type
  1137 ;;  fp              2   50[BANK5 ] PTR struct _IO_FILE
  1138 ;;		 -> sprintf@f(11), 
  1139 ;;  fmt             2   52[BANK5 ] PTR const unsigned char 
  1140 ;;		 -> STR_1(5), 
  1141 ;;  ap              2   54[BANK5 ] PTR PTR void 
  1142 ;;		 -> sprintf@ap(2), 
  1143 ;; Auto vars:     Size  Location     Type
  1144 ;;  cfmt            2   73[COMRAM] PTR unsigned char 
  1145 ;;		 -> STR_1(5), 
  1146 ;; Return value:  Size  Location     Type
  1147 ;;                  2   50[BANK5 ] int 
  1148 ;; Registers used:
  1149 ;;		wreg, fsr1l, fsr1h, fsr2l, fsr2h, status,2, status,0, tblptrl, tblptrh, tblptru, prodl, prodh, cstack
  1150 ;; Tracked objects:
  1151 ;;		On entry : 0/0
  1152 ;;		On exit  : 0/0
  1153 ;;		Unchanged: 0/0
  1154 ;; Data sizes:     COMRAM   BANK5   BANK6   BANK7   BANK8   BANK9  BANK10  BANK11  BANK12  BANK13  BANK14  BANK15  BANK1
      +6  BANK17  BANK18  BANK19  BANK20  BANK21  BANK22  BANK23  BANK24  BANK25  BANK26  BANK27  BANK28  BANK29  BANK30  BANK3
      +1  BANK32  BANK33  BANK34  BANK35  BANK36
  1155 ;;      Params:         0       6       0       0       0       0       0       0       0       0       0       0       
      +0       0       0       0       0       0       0       0       0       0       0       0       0       0       0       
      +0       0       0       0       0       0
  1156 ;;      Locals:         2       0       0       0       0       0       0       0       0       0       0       0       
      +0       0       0       0       0       0       0       0       0       0       0       0       0       0       0       
      +0       0       0       0       0       0
  1157 ;;      Temps:          0       0       0       0       0       0       0       0       0       0       0       0       
      +0       0       0       0       0       0       0       0       0       0       0       0       0       0       0       
      +0       0       0       0       0       0
  1158 ;;      Totals:         2       6       0       0       0       0       0       0       0       0       0       0       
      +0       0       0       0       0       0       0       0       0       0       0       0       0       0       0       
      +0       0       0       0       0       0
  1159 ;;Total ram usage:        8 bytes
  1160 ;; Hardware stack levels used: 1
  1161 ;; Hardware stack levels required when called: 6
  1162 ;; This function calls:
  1163 ;;		_vfpfcnvrt
  1164 ;; This function is called by:
  1165 ;;		_sprintf
  1166 ;; This function uses a non-reentrant model
  1167 ;;
  1168                           
  1169                           	psect	text3
  1170   0048D2                     __ptext3:
  1171                           	callstack 0
  1172   0048D2                     _vfprintf:
  1173                           	callstack 118
  1174   0048D2                     
  1175                           ;D:\XC8\pic\sources\c99\common\doprnt.c: 1520: int vfprintf(FILE *fp, const char *fmt, v
      +                          a_list ap);D:\XC8\pic\sources\c99\common\doprnt.c: 1521: {;D:\XC8\pic\sources\c99\common
      +                          \doprnt.c: 1523:     char *cfmt;;D:\XC8\pic\sources\c99\common\doprnt.c: 1525:     cfmt 
      +                          = (char *)fmt;
  1176   0048D2  C594  F54A         	movff	vfprintf@fmt,vfprintf@cfmt
  1177   0048D6  C595  F54B         	movff	vfprintf@fmt+1,vfprintf@cfmt+1
  1178                           
  1179                           ;D:\XC8\pic\sources\c99\common\doprnt.c: 1529:     while (*cfmt) {
  1180   0048DA  EF7E  F024         	goto	i2l3259
  1181   0048DE                     i2l3257:
  1182                           
  1183                           ;D:\XC8\pic\sources\c99\common\doprnt.c: 1533:    vfpfcnvrt(fp, &cfmt, ap);
  1184   0048DE  C592  F58C         	movff	vfprintf@fp,vfpfcnvrt@fp
  1185   0048E2  C593  F58D         	movff	vfprintf@fp+1,vfpfcnvrt@fp+1
  1186   0048E6  0E4A               	movlw	low vfprintf@cfmt
  1187   0048E8  0105               	movlb	5	; () banked
  1188   0048EA  6F8E               	movwf	vfpfcnvrt@fmt& (0+255),b
  1189   0048EC  0E05               	movlw	high vfprintf@cfmt
  1190   0048EE  6F8F               	movwf	(vfpfcnvrt@fmt+1)& (0+255),b
  1191   0048F0  C596  F590         	movff	vfprintf@ap,vfpfcnvrt@ap
  1192   0048F4  C597  F591         	movff	vfprintf@ap+1,vfpfcnvrt@ap+1
  1193   0048F8  EC48  F01E         	call	_vfpfcnvrt	;wreg free
  1194   0048FC                     i2l3259:
  1195                           
  1196                           ;D:\XC8\pic\sources\c99\common\doprnt.c: 1529:     while (*cfmt) {
  1197   0048FC  C54A  F4F6         	movff	vfprintf@cfmt,tblptrl
  1198   004900  C54B  F4F7         	movff	vfprintf@cfmt+1,tblptrh
  1199   004904                     	if	0	;tblptru may be non-zero
  1200   004904                     	endif
  1201   004904                     	if	1	;Program memory is > 0xFFFF, there are 3 active tblptr bytes
  1202   004904  0E00               	movlw	low (__mediumconst shr (0+16))
  1203   004906  6EF8               	movwf	tblptru,c
  1204   004908                     	endif
  1205   004908  0008               	tblrd		*
  1206   00490A  50F5               	movf	tablat,w,c
  1207   00490C  0900               	iorlw	0
  1208   00490E  A4D8               	btfss	status,2,c
  1209   004910  EF8C  F024         	goto	i2u329_41
  1210   004914  EF8E  F024         	goto	i2u329_40
  1211   004918                     i2u329_41:
  1212   004918  EF6F  F024         	goto	i2l3257
  1213   00491C                     i2u329_40:
  1214   00491C                     
  1215                           ;D:\XC8\pic\sources\c99\common\doprnt.c: 1538:  return 0;
  1216   00491C  0E00               	movlw	0
  1217   00491E  0105               	movlb	5	; () banked
  1218   004920  6F93               	movwf	(?_vfprintf+1)& (0+255),b
  1219   004922  0E00               	movlw	0
  1220   004924  6F92               	movwf	?_vfprintf& (0+255),b
  1221   004926                     
  1222                           ; BSR set to: 5
  1223   004926  0012               	return		;funcret
  1224   004928                     __end_of_vfprintf:
  1225                           	callstack 0
  1226                           
  1227 ;; *************** function _vfpfcnvrt *****************
  1228 ;; Defined at:
  1229 ;;		line 1007 in file "D:\XC8\pic\sources\c99\common\doprnt.c"
  1230 ;; Parameters:    Size  Location     Type
  1231 ;;  fp              2   44[BANK5 ] PTR struct _IO_FILE
  1232 ;;		 -> sprintf@f(11), 
  1233 ;;  fmt             2   46[BANK5 ] PTR PTR unsigned char 
  1234 ;;		 -> vfprintf@cfmt(2), 
  1235 ;;  ap              2   48[BANK5 ] PTR PTR void 
  1236 ;;		 -> sprintf@ap(2), 
  1237 ;; Auto vars:     Size  Location     Type
  1238 ;;  convarg         8   62[COMRAM] struct .
  1239 ;;  cp              2   71[COMRAM] PTR unsigned char 
  1240 ;;		 -> STR_1(5), 
  1241 ;;  i               2    0        int 
  1242 ;;  done            2    0        int 
  1243 ;;  c               1   70[COMRAM] unsigned char 
  1244 ;; Return value:  Size  Location     Type
  1245 ;;                  1    wreg      void 
  1246 ;; Registers used:
  1247 ;;		wreg, fsr1l, fsr1h, fsr2l, fsr2h, status,2, status,0, tblptrl, tblptrh, tblptru, prodl, prodh, cstack
  1248 ;; Tracked objects:
  1249 ;;		On entry : 0/0
  1250 ;;		On exit  : 0/0
  1251 ;;		Unchanged: 0/0
  1252 ;; Data sizes:     COMRAM   BANK5   BANK6   BANK7   BANK8   BANK9  BANK10  BANK11  BANK12  BANK13  BANK14  BANK15  BANK1
      +6  BANK17  BANK18  BANK19  BANK20  BANK21  BANK22  BANK23  BANK24  BANK25  BANK26  BANK27  BANK28  BANK29  BANK30  BANK3
      +1  BANK32  BANK33  BANK34  BANK35  BANK36
  1253 ;;      Params:         0       6       0       0       0       0       0       0       0       0       0       0       
      +0       0       0       0       0       0       0       0       0       0       0       0       0       0       0       
      +0       0       0       0       0       0
  1254 ;;      Locals:        11       0       0       0       0       0       0       0       0       0       0       0       
      +0       0       0       0       0       0       0       0       0       0       0       0       0       0       0       
      +0       0       0       0       0       0
  1255 ;;      Temps:          2       0       0       0       0       0       0       0       0       0       0       0       
      +0       0       0       0       0       0       0       0       0       0       0       0       0       0       0       
      +0       0       0       0       0       0
  1256 ;;      Totals:        13       6       0       0       0       0       0       0       0       0       0       0       
      +0       0       0       0       0       0       0       0       0       0       0       0       0       0       0       
      +0       0       0       0       0       0
  1257 ;;Total ram usage:       19 bytes
  1258 ;; Hardware stack levels used: 1
  1259 ;; Hardware stack levels required when called: 5
  1260 ;; This function calls:
  1261 ;;		_efgtoa
  1262 ;;		_fputc
  1263 ;; This function is called by:
  1264 ;;		_vfprintf
  1265 ;; This function uses a non-reentrant model
  1266 ;;
  1267                           
  1268                           	psect	text4
  1269   003C90                     __ptext4:
  1270                           	callstack 0
  1271   003C90                     _vfpfcnvrt:
  1272                           	callstack 118
  1273   003C90                     
  1274                           ;D:\XC8\pic\sources\c99\common\doprnt.c: 1007: vfpfcnvrt(FILE *fp, char *fmt[], va_list 
      +                          ap);D:\XC8\pic\sources\c99\common\doprnt.c: 1008: {;D:\XC8\pic\sources\c99\common\doprnt
      +                          .c: 1009:     char c, *cp;;D:\XC8\pic\sources\c99\common\doprnt.c: 1010:     int done, i
      +                          ;;D:\XC8\pic\sources\c99\common\doprnt.c: 1016:  } convarg;;D:\XC8\pic\sources\c99\commo
      +                          n\doprnt.c: 1019:     if ((*fmt)[0] == '%') {
  1275   003C90  C58E  F4D9         	movff	vfpfcnvrt@fmt,fsr2l
  1276   003C94  C58F  F4DA         	movff	vfpfcnvrt@fmt+1,fsr2h
  1277   003C98  C4DE F4F6          	movff	postinc2,tblptrl
  1278   003C9C  C4DD F4F7          	movff	postdec2,tblptrh
  1279   003CA0                     	if	0	;tblptru may be non-zero
  1280   003CA0                     	endif
  1281   003CA0                     	if	1	;Program memory is > 0xFFFF, there are 3 active tblptr bytes
  1282   003CA0  0E00               	movlw	low (__mediumconst shr (0+16))
  1283   003CA2  6EF8               	movwf	tblptru,c
  1284   003CA4                     	endif
  1285   003CA4  0008               	tblrd		*
  1286   003CA6  50F5               	movf	tablat,w,c
  1287   003CA8  0A25               	xorlw	37
  1288   003CAA  A4D8               	btfss	status,2,c
  1289   003CAC  EF5A  F01E         	goto	i2u327_41
  1290   003CB0  EF5C  F01E         	goto	i2u327_40
  1291   003CB4                     i2u327_41:
  1292   003CB4  EF49  F01F         	goto	i2l3219
  1293   003CB8                     i2u327_40:
  1294   003CB8                     
  1295                           ;D:\XC8\pic\sources\c99\common\doprnt.c: 1020:         ++*fmt;
  1296   003CB8  C58E  F4D9         	movff	vfpfcnvrt@fmt,fsr2l
  1297   003CBC  C58F  F4DA         	movff	vfpfcnvrt@fmt+1,fsr2h
  1298   003CC0  2ADE               	incf	postinc2,f,c
  1299   003CC2  0E00               	movlw	0
  1300   003CC4  22DD               	addwfc	postdec2,f,c
  1301   003CC6                     
  1302                           ;D:\XC8\pic\sources\c99\common\doprnt.c: 1022:         flags = width = 0;
  1303   003CC6  0E00               	movlw	0
  1304   003CC8  0105               	movlb	5	; () banked
  1305   003CCA  6FB8               	movwf	(_width+1)& (0+255),b
  1306   003CCC  0E00               	movlw	0
  1307   003CCE  6FB7               	movwf	_width& (0+255),b
  1308   003CD0  C5B7  F5B9         	movff	_width,_flags
  1309   003CD4                     
  1310                           ; BSR set to: 5
  1311                           ;D:\XC8\pic\sources\c99\common\doprnt.c: 1023:         prec = -1;
  1312   003CD4  685E               	setf	_prec^(0+1280),c
  1313   003CD6  685F               	setf	(_prec+1)^(0+1280),c
  1314   003CD8                     
  1315                           ; BSR set to: 5
  1316                           ;D:\XC8\pic\sources\c99\common\doprnt.c: 1392:   cp = *fmt;
  1317   003CD8  C58E  F4D9         	movff	vfpfcnvrt@fmt,fsr2l
  1318   003CDC  C58F  F4DA         	movff	vfpfcnvrt@fmt+1,fsr2h
  1319   003CE0  C4DE F548          	movff	postinc2,vfpfcnvrt@cp
  1320   003CE4  C4DD F549          	movff	postdec2,vfpfcnvrt@cp+1
  1321   003CE8                     
  1322                           ; BSR set to: 5
  1323                           ;D:\XC8\pic\sources\c99\common\doprnt.c: 1393:   c = *cp;
  1324   003CE8  C548  F4F6         	movff	vfpfcnvrt@cp,tblptrl
  1325   003CEC  C549  F4F7         	movff	vfpfcnvrt@cp+1,tblptrh
  1326   003CF0                     	if	0	;tblptru may be non-zero
  1327   003CF0                     	endif
  1328   003CF0                     	if	1	;Program memory is > 0xFFFF, there are 3 active tblptr bytes
  1329   003CF0  0E00               	movlw	low (__mediumconst shr (0+16))
  1330   003CF2  6EF8               	movwf	tblptru,c
  1331   003CF4                     	endif
  1332   003CF4  0008               	tblrd		*
  1333   003CF6  C4F5 F547          	movff	tablat,vfpfcnvrt@c
  1334                           
  1335                           ;D:\XC8\pic\sources\c99\common\doprnt.c: 1394:   switch(c) {
  1336   003CFA  EF8B  F01E         	goto	i2l3193
  1337   003CFE                     i2l3185:
  1338                           
  1339                           ; BSR set to: 5
  1340                           ;D:\XC8\pic\sources\c99\common\doprnt.c: 1398:     cp++;
  1341   003CFE  4A48               	infsnz	vfpfcnvrt@cp^(0+1280),f,c
  1342   003D00  2A49               	incf	(vfpfcnvrt@cp+1)^(0+1280),f,c
  1343                           
  1344                           ;D:\XC8\pic\sources\c99\common\doprnt.c: 1399:     break;
  1345   003D02  EFA4  F01E         	goto	i2l3195
  1346   003D06                     i2l3187:
  1347                           
  1348                           ; BSR set to: 5
  1349                           ;D:\XC8\pic\sources\c99\common\doprnt.c: 1424:     c = 'l';
  1350   003D06  0E6C               	movlw	108
  1351   003D08  6E47               	movwf	vfpfcnvrt@c^(0+1280),c
  1352                           
  1353                           ;D:\XC8\pic\sources\c99\common\doprnt.c: 1425:     break;
  1354   003D0A  EFA4  F01E         	goto	i2l3195
  1355   003D0E                     i2l3189:
  1356                           
  1357                           ; BSR set to: 5
  1358                           ;D:\XC8\pic\sources\c99\common\doprnt.c: 1427:     c = 0;
  1359   003D0E  0E00               	movlw	0
  1360   003D10  6E47               	movwf	vfpfcnvrt@c^(0+1280),c
  1361                           
  1362                           ;D:\XC8\pic\sources\c99\common\doprnt.c: 1428:     break;
  1363   003D12  EFA4  F01E         	goto	i2l3195
  1364   003D16                     i2l3193:
  1365                           
  1366                           ; BSR set to: 5
  1367   003D16  5047               	movf	vfpfcnvrt@c^(0+1280),w,c
  1368   003D18  6E3D               	movwf	??_vfpfcnvrt^(0+1280),c
  1369   003D1A  6A3E               	clrf	(??_vfpfcnvrt+1)^(0+1280),c
  1370                           
  1371                           ; Switch on 2 bytes has been partitioned into a top level switch of size 1, and 1 sub-sw
      +                          itches
  1372                           ; Switch size 1, requested type "simple"
  1373                           ; Number of cases is 1, Range of values is 0 to 0
  1374                           ; switch strategies available:
  1375                           ; Name         Instructions Cycles
  1376                           ; simple_byte            4     3 (average)
  1377                           ;	Chosen strategy is simple_byte
  1378   003D1C  503E               	movf	(??_vfpfcnvrt+1)^(0+1280),w,c
  1379   003D1E  0A00               	xorlw	0	; case 0
  1380   003D20  B4D8               	btfsc	status,2,c
  1381   003D22  EF95  F01E         	goto	i2l3701
  1382   003D26  EF87  F01E         	goto	i2l3189
  1383   003D2A                     i2l3701:
  1384                           
  1385                           ; BSR set to: 5
  1386                           ; Switch size 1, requested type "simple"
  1387                           ; Number of cases is 3, Range of values is 76 to 108
  1388                           ; switch strategies available:
  1389                           ; Name         Instructions Cycles
  1390                           ; simple_byte           10     6 (average)
  1391                           ;	Chosen strategy is simple_byte
  1392   003D2A  503D               	movf	??_vfpfcnvrt^(0+1280),w,c
  1393   003D2C  0A4C               	xorlw	76	; case 76
  1394   003D2E  B4D8               	btfsc	status,2,c
  1395   003D30  EF7F  F01E         	goto	i2l3185
  1396   003D34  0A2A               	xorlw	42	; case 102
  1397   003D36  B4D8               	btfsc	status,2,c
  1398   003D38  EF83  F01E         	goto	i2l3187
  1399   003D3C  0A0A               	xorlw	10	; case 108
  1400   003D3E  B4D8               	btfsc	status,2,c
  1401   003D40  EF7F  F01E         	goto	i2l3185
  1402   003D44  EF87  F01E         	goto	i2l3189
  1403   003D48                     i2l3195:
  1404                           
  1405                           ; BSR set to: 5
  1406   003D48  C548  F4F6         	movff	vfpfcnvrt@cp,tblptrl
  1407   003D4C  C549  F4F7         	movff	vfpfcnvrt@cp+1,tblptrh
  1408   003D50                     	if	0	;tblptru may be non-zero
  1409   003D50                     	endif
  1410   003D50                     	if	1	;Program memory is > 0xFFFF, there are 3 active tblptr bytes
  1411   003D50  0E00               	movlw	low (__mediumconst shr (0+16))
  1412   003D52  6EF8               	movwf	tblptru,c
  1413   003D54                     	endif
  1414   003D54  0008               	tblrd		*
  1415   003D56  50F5               	movf	tablat,w,c
  1416   003D58  0A66               	xorlw	102
  1417   003D5A  A4D8               	btfss	status,2,c
  1418   003D5C  EFB2  F01E         	goto	i2u328_41
  1419   003D60  EFB4  F01E         	goto	i2u328_40
  1420   003D64                     i2u328_41:
  1421   003D64  EF40  F01F         	goto	i2l3215
  1422   003D68                     i2u328_40:
  1423   003D68  EFEA  F01E         	goto	i2l3203
  1424   003D6C                     i2l3197:
  1425                           
  1426                           ; BSR set to: 5
  1427                           ;D:\XC8\pic\sources\c99\common\doprnt.c: 1459:      convarg.f = (long double)(*(double *
      +                          )__va_arg(*(double **)ap, (double)0));
  1428   003D6C  C590  F4D9         	movff	vfpfcnvrt@ap,fsr2l
  1429   003D70  C591  F4DA         	movff	vfpfcnvrt@ap+1,fsr2h
  1430   003D74  C4DF F53D          	movff	indf2,??_vfpfcnvrt
  1431   003D78  0E04               	movlw	4
  1432   003D7A  26DE               	addwf	postinc2,f,c
  1433   003D7C  C4DF F53E          	movff	indf2,??_vfpfcnvrt+1
  1434   003D80  0E00               	movlw	0
  1435   003D82  22DD               	addwfc	postdec2,f,c
  1436   003D84  C53D  F4D9         	movff	??_vfpfcnvrt,fsr2l
  1437   003D88  C53E  F4DA         	movff	??_vfpfcnvrt+1,fsr2h
  1438   003D8C  C4DE F53F          	movff	postinc2,vfpfcnvrt@convarg
  1439   003D90  C4DE F540          	movff	postinc2,vfpfcnvrt@convarg+1
  1440   003D94  C4DE F541          	movff	postinc2,vfpfcnvrt@convarg+2
  1441   003D98  C4DE F542          	movff	postinc2,vfpfcnvrt@convarg+3
  1442                           
  1443                           ;D:\XC8\pic\sources\c99\common\doprnt.c: 1460:      break;
  1444   003D9C  EFFF  F01E         	goto	i2l3205
  1445   003DA0                     i2l3199:
  1446                           
  1447                           ; BSR set to: 5
  1448                           ;D:\XC8\pic\sources\c99\common\doprnt.c: 1462:      convarg.f = (long double)(*(long dou
      +                          ble *)__va_arg(*(long double **)ap, (long double)0));
  1449   003DA0  C590  F4D9         	movff	vfpfcnvrt@ap,fsr2l
  1450   003DA4  C591  F4DA         	movff	vfpfcnvrt@ap+1,fsr2h
  1451   003DA8  C4DF F53D          	movff	indf2,??_vfpfcnvrt
  1452   003DAC  0E04               	movlw	4
  1453   003DAE  26DE               	addwf	postinc2,f,c
  1454   003DB0  C4DF F53E          	movff	indf2,??_vfpfcnvrt+1
  1455   003DB4  0E00               	movlw	0
  1456   003DB6  22DD               	addwfc	postdec2,f,c
  1457   003DB8  C53D  F4D9         	movff	??_vfpfcnvrt,fsr2l
  1458   003DBC  C53E  F4DA         	movff	??_vfpfcnvrt+1,fsr2h
  1459   003DC0  C4DE F53F          	movff	postinc2,vfpfcnvrt@convarg
  1460   003DC4  C4DE F540          	movff	postinc2,vfpfcnvrt@convarg+1
  1461   003DC8  C4DE F541          	movff	postinc2,vfpfcnvrt@convarg+2
  1462   003DCC  C4DE F542          	movff	postinc2,vfpfcnvrt@convarg+3
  1463                           
  1464                           ;D:\XC8\pic\sources\c99\common\doprnt.c: 1463:      break;
  1465   003DD0  EFFF  F01E         	goto	i2l3205
  1466   003DD4                     i2l3203:
  1467                           
  1468                           ; BSR set to: 5
  1469   003DD4  5047               	movf	vfpfcnvrt@c^(0+1280),w,c
  1470   003DD6  6E3D               	movwf	??_vfpfcnvrt^(0+1280),c
  1471   003DD8  6A3E               	clrf	(??_vfpfcnvrt+1)^(0+1280),c
  1472                           
  1473                           ; Switch on 2 bytes has been partitioned into a top level switch of size 1, and 1 sub-sw
      +                          itches
  1474                           ; Switch size 1, requested type "simple"
  1475                           ; Number of cases is 1, Range of values is 0 to 0
  1476                           ; switch strategies available:
  1477                           ; Name         Instructions Cycles
  1478                           ; simple_byte            4     3 (average)
  1479                           ;	Chosen strategy is simple_byte
  1480   003DDA  503E               	movf	(??_vfpfcnvrt+1)^(0+1280),w,c
  1481   003DDC  0A00               	xorlw	0	; case 0
  1482   003DDE  B4D8               	btfsc	status,2,c
  1483   003DE0  EFF4  F01E         	goto	i2l3703
  1484   003DE4  EFFF  F01E         	goto	i2l3205
  1485   003DE8                     i2l3703:
  1486                           
  1487                           ; BSR set to: 5
  1488                           ; Switch size 1, requested type "simple"
  1489                           ; Number of cases is 2, Range of values is 76 to 108
  1490                           ; switch strategies available:
  1491                           ; Name         Instructions Cycles
  1492                           ; simple_byte            7     4 (average)
  1493                           ;	Chosen strategy is simple_byte
  1494   003DE8  503D               	movf	??_vfpfcnvrt^(0+1280),w,c
  1495   003DEA  0A4C               	xorlw	76	; case 76
  1496   003DEC  B4D8               	btfsc	status,2,c
  1497   003DEE  EFD0  F01E         	goto	i2l3199
  1498   003DF2  0A20               	xorlw	32	; case 108
  1499   003DF4  B4D8               	btfsc	status,2,c
  1500   003DF6  EFB6  F01E         	goto	i2l3197
  1501   003DFA  EFFF  F01E         	goto	i2l3205
  1502   003DFE                     i2l3205:
  1503                           
  1504                           ; BSR set to: 5
  1505                           ;D:\XC8\pic\sources\c99\common\doprnt.c: 1465:    *fmt = cp+1;
  1506   003DFE  0E01               	movlw	1
  1507   003E00  2448               	addwf	vfpfcnvrt@cp^(0+1280),w,c
  1508   003E02  6E3D               	movwf	??_vfpfcnvrt^(0+1280),c
  1509   003E04  0E00               	movlw	0
  1510   003E06  2049               	addwfc	(vfpfcnvrt@cp+1)^(0+1280),w,c
  1511   003E08  6E3E               	movwf	(??_vfpfcnvrt+1)^(0+1280),c
  1512   003E0A  C58E  F4D9         	movff	vfpfcnvrt@fmt,fsr2l
  1513   003E0E  C58F  F4DA         	movff	vfpfcnvrt@fmt+1,fsr2h
  1514   003E12  C53D  F4DE         	movff	??_vfpfcnvrt,postinc2
  1515   003E16  C53E  F4DD         	movff	??_vfpfcnvrt+1,postdec2
  1516                           
  1517                           ;D:\XC8\pic\sources\c99\common\doprnt.c: 1466:    switch (*cp) {
  1518   003E1A  EF28  F01F         	goto	i2l3213
  1519   003E1E                     i2l3207:
  1520                           
  1521                           ; BSR set to: 5
  1522                           ;D:\XC8\pic\sources\c99\common\doprnt.c: 1493:      return (void) efgtoa(fp, convarg.f, 
      +                          *cp);;	Return value of _vfpfcnvrt is never used
  1523   003E1E  C58C  F534         	movff	vfpfcnvrt@fp,efgtoa@fp
  1524   003E22  C58D  F535         	movff	vfpfcnvrt@fp+1,efgtoa@fp+1
  1525   003E26  C53F  F536         	movff	vfpfcnvrt@convarg,efgtoa@f
  1526   003E2A  C540  F537         	movff	vfpfcnvrt@convarg+1,efgtoa@f+1
  1527   003E2E  C541  F538         	movff	vfpfcnvrt@convarg+2,efgtoa@f+2
  1528   003E32  C542  F539         	movff	vfpfcnvrt@convarg+3,efgtoa@f+3
  1529   003E36  C548  F4F6         	movff	vfpfcnvrt@cp,tblptrl
  1530   003E3A  C549  F4F7         	movff	vfpfcnvrt@cp+1,tblptrh
  1531   003E3E                     	if	0	;tblptru may be non-zero
  1532   003E3E                     	endif
  1533   003E3E                     	if	1	;Program memory is > 0xFFFF, there are 3 active tblptr bytes
  1534   003E3E  0E00               	movlw	low (__mediumconst shr (0+16))
  1535   003E40  6EF8               	movwf	tblptru,c
  1536   003E42                     	endif
  1537   003E42  0008               	tblrd		*
  1538   003E44  C4F5 F53A          	movff	tablat,efgtoa@c
  1539   003E48  EC08  F013         	call	_efgtoa	;wreg free
  1540   003E4C  EF5F  F01F         	goto	i2l980
  1541   003E50                     i2l3213:
  1542                           
  1543                           ; BSR set to: 5
  1544   003E50  C548  F4F6         	movff	vfpfcnvrt@cp,tblptrl
  1545   003E54  C549  F4F7         	movff	vfpfcnvrt@cp+1,tblptrh
  1546   003E58                     	if	0	;tblptru may be non-zero
  1547   003E58                     	endif
  1548   003E58                     	if	1	;Program memory is > 0xFFFF, there are 3 active tblptr bytes
  1549   003E58  0E00               	movlw	low (__mediumconst shr (0+16))
  1550   003E5A  6EF8               	movwf	tblptru,c
  1551   003E5C                     	endif
  1552   003E5C  0008               	tblrd		*
  1553   003E5E  50F5               	movf	tablat,w,c
  1554   003E60  6E3D               	movwf	??_vfpfcnvrt^(0+1280),c
  1555   003E62  6A3E               	clrf	(??_vfpfcnvrt+1)^(0+1280),c
  1556                           
  1557                           ; Switch on 2 bytes has been partitioned into a top level switch of size 1, and 1 sub-sw
      +                          itches
  1558                           ; Switch size 1, requested type "simple"
  1559                           ; Number of cases is 1, Range of values is 0 to 0
  1560                           ; switch strategies available:
  1561                           ; Name         Instructions Cycles
  1562                           ; simple_byte            4     3 (average)
  1563                           ;	Chosen strategy is simple_byte
  1564   003E64  503E               	movf	(??_vfpfcnvrt+1)^(0+1280),w,c
  1565   003E66  0A00               	xorlw	0	; case 0
  1566   003E68  B4D8               	btfsc	status,2,c
  1567   003E6A  EF39  F01F         	goto	i2l3705
  1568   003E6E  EF40  F01F         	goto	i2l3215
  1569   003E72                     i2l3705:
  1570                           
  1571                           ; BSR set to: 5
  1572                           ; Switch size 1, requested type "simple"
  1573                           ; Number of cases is 1, Range of values is 102 to 102
  1574                           ; switch strategies available:
  1575                           ; Name         Instructions Cycles
  1576                           ; simple_byte            4     3 (average)
  1577                           ;	Chosen strategy is simple_byte
  1578   003E72  503D               	movf	??_vfpfcnvrt^(0+1280),w,c
  1579   003E74  0A66               	xorlw	102	; case 102
  1580   003E76  B4D8               	btfsc	status,2,c
  1581   003E78  EF0F  F01F         	goto	i2l3207
  1582   003E7C  EF40  F01F         	goto	i2l3215
  1583   003E80                     i2l3215:
  1584                           
  1585                           ;D:\XC8\pic\sources\c99\common\doprnt.c: 1509:         ++*fmt;
  1586   003E80  C58E  F4D9         	movff	vfpfcnvrt@fmt,fsr2l
  1587   003E84  C58F  F4DA         	movff	vfpfcnvrt@fmt+1,fsr2h
  1588   003E88  2ADE               	incf	postinc2,f,c
  1589   003E8A  0E00               	movlw	0
  1590   003E8C  22DD               	addwfc	postdec2,f,c
  1591   003E8E  EF5F  F01F         	goto	i2l980
  1592   003E92                     i2l3219:
  1593                           
  1594                           ;D:\XC8\pic\sources\c99\common\doprnt.c: 1514:     fputc((int)(*fmt)[0], fp);
  1595   003E92  C58E  F4D9         	movff	vfpfcnvrt@fmt,fsr2l
  1596   003E96  C58F  F4DA         	movff	vfpfcnvrt@fmt+1,fsr2h
  1597   003E9A  C4DE F4F6          	movff	postinc2,tblptrl
  1598   003E9E  C4DD F4F7          	movff	postdec2,tblptrh
  1599   003EA2                     	if	0	;tblptru may be non-zero
  1600   003EA2                     	endif
  1601   003EA2                     	if	1	;Program memory is > 0xFFFF, there are 3 active tblptr bytes
  1602   003EA2  0E00               	movlw	low (__mediumconst shr (0+16))
  1603   003EA4  6EF8               	movwf	tblptru,c
  1604   003EA6                     	endif
  1605   003EA6  0008               	tblrd		*
  1606   003EA8  50F5               	movf	tablat,w,c
  1607   003EAA  6E01               	movwf	fputc@c^(0+1280),c
  1608   003EAC  6A02               	clrf	(fputc@c+1)^(0+1280),c
  1609   003EAE  C58C  F503         	movff	vfpfcnvrt@fp,fputc@fp
  1610   003EB2  C58D  F504         	movff	vfpfcnvrt@fp+1,fputc@fp+1
  1611   003EB6  EC3F  F023         	call	_fputc	;wreg free
  1612   003EBA  EF40  F01F         	goto	i2l3215
  1613   003EBE                     i2l980:
  1614   003EBE  0012               	return		;funcret
  1615   003EC0                     __end_of_vfpfcnvrt:
  1616                           	callstack 0
  1617                           
  1618 ;; *************** function _efgtoa *****************
  1619 ;; Defined at:
  1620 ;;		line 506 in file "D:\XC8\pic\sources\c99\common\doprnt.c"
  1621 ;; Parameters:    Size  Location     Type
  1622 ;;  fp              2   51[COMRAM] PTR struct _IO_FILE
  1623 ;;		 -> sprintf@f(11), 
  1624 ;;  f               4   53[COMRAM] PTR struct _IO_FILE
  1625 ;;  c               1   57[COMRAM] unsigned char 
  1626 ;; Auto vars:     Size  Location     Type
  1627 ;;  u               4   40[BANK5 ] struct flui
  1628 ;;  g               4   36[BANK5 ] struct flui
  1629 ;;  l               4   29[BANK5 ] struct flui
  1630 ;;  h               4   25[BANK5 ] struct flui
  1631 ;;  ou              4   19[BANK5 ] struct flui
  1632 ;;  n               2   34[BANK5 ] int 
  1633 ;;  i               2   23[BANK5 ] int 
  1634 ;;  w               2   17[BANK5 ] int 
  1635 ;;  e               2   15[BANK5 ] int 
  1636 ;;  m               2   13[BANK5 ] int 
  1637 ;;  d               2   11[BANK5 ] int 
  1638 ;;  t               2    4[BANK5 ] int 
  1639 ;;  p               2    2[BANK5 ] int 
  1640 ;;  ne              2    0[BANK5 ] int 
  1641 ;;  sign            1   33[BANK5 ] unsigned char 
  1642 ;;  nmode           1   10[BANK5 ] unsigned char 
  1643 ;;  mode            1    9[BANK5 ] unsigned char 
  1644 ;;  pp              1    8[BANK5 ] unsigned char 
  1645 ;;  esign           1    0        unsigned char 
  1646 ;; Return value:  Size  Location     Type
  1647 ;;                  1    wreg      void 
  1648 ;; Registers used:
  1649 ;;		wreg, fsr1l, fsr1h, fsr2l, fsr2h, status,2, status,0, tblptrl, tblptrh, tblptru, prodl, prodh, cstack
  1650 ;; Tracked objects:
  1651 ;;		On entry : 0/0
  1652 ;;		On exit  : 0/0
  1653 ;;		Unchanged: 0/0
  1654 ;; Data sizes:     COMRAM   BANK5   BANK6   BANK7   BANK8   BANK9  BANK10  BANK11  BANK12  BANK13  BANK14  BANK15  BANK1
      +6  BANK17  BANK18  BANK19  BANK20  BANK21  BANK22  BANK23  BANK24  BANK25  BANK26  BANK27  BANK28  BANK29  BANK30  BANK3
      +1  BANK32  BANK33  BANK34  BANK35  BANK36
  1655 ;;      Params:         7       0       0       0       0       0       0       0       0       0       0       0       
      +0       0       0       0       0       0       0       0       0       0       0       0       0       0       0       
      +0       0       0       0       0       0
  1656 ;;      Locals:         0      44       0       0       0       0       0       0       0       0       0       0       
      +0       0       0       0       0       0       0       0       0       0       0       0       0       0       0       
      +0       0       0       0       0       0
  1657 ;;      Temps:          2       0       0       0       0       0       0       0       0       0       0       0       
      +0       0       0       0       0       0       0       0       0       0       0       0       0       0       0       
      +0       0       0       0       0       0
  1658 ;;      Totals:         9      44       0       0       0       0       0       0       0       0       0       0       
      +0       0       0       0       0       0       0       0       0       0       0       0       0       0       0       
      +0       0       0       0       0       0
  1659 ;;Total ram usage:       53 bytes
  1660 ;; Hardware stack levels used: 1
  1661 ;; Hardware stack levels required when called: 4
  1662 ;; This function calls:
  1663 ;;		___fladd
  1664 ;;		___fldiv
  1665 ;;		___fleq
  1666 ;;		___flge
  1667 ;;		___flmul
  1668 ;;		___flneg
  1669 ;;		___flsub
  1670 ;;		___fltol
  1671 ;;		___fpclassifyf
  1672 ;;		_floorf
  1673 ;;		_labs
  1674 ;;		_memcpy
  1675 ;;		_pad
  1676 ;;		_strcpy
  1677 ;; This function is called by:
  1678 ;;		_vfpfcnvrt
  1679 ;; This function uses a non-reentrant model
  1680 ;;
  1681                           
  1682                           	psect	text5
  1683   002610                     __ptext5:
  1684                           	callstack 0
  1685   002610                     _efgtoa:
  1686                           	callstack 118
  1687   002610                     
  1688                           ;D:\XC8\pic\sources\c99\common\doprnt.c: 506: static void efgtoa(FILE *fp, long double f
      +                          , char c);D:\XC8\pic\sources\c99\common\doprnt.c: 507: {;D:\XC8\pic\sources\c99\common\d
      +                          oprnt.c: 508:     char mode, nmode, pp, sign, esign;;D:\XC8\pic\sources\c99\common\doprn
      +                          t.c: 509:     int d, e, i, m, n, ne, p, t, w;;D:\XC8\pic\sources\c99\common\doprnt.c: 51
      +                          0:     long double h, l;;D:\XC8\pic\sources\c99\common\doprnt.c: 511:  union flui g, u, 
      +                          ou;;D:\XC8\pic\sources\c99\common\doprnt.c: 514:     sign = 0;
  1689   002610  0E00               	movlw	0
  1690   002612  0105               	movlb	5	; () banked
  1691   002614  6F81               	movwf	efgtoa@sign& (0+255),b
  1692   002616                     
  1693                           ; BSR set to: 5
  1694                           ;D:\XC8\pic\sources\c99\common\doprnt.c: 515:     g.f = f;
  1695   002616  C536  F584         	movff	efgtoa@f,efgtoa@g
  1696   00261A  C537  F585         	movff	efgtoa@f+1,efgtoa@g+1
  1697   00261E  C538  F586         	movff	efgtoa@f+2,efgtoa@g+2
  1698   002622  C539  F587         	movff	efgtoa@f+3,efgtoa@g+3
  1699   002626                     
  1700                           ; BSR set to: 5
  1701                           ;D:\XC8\pic\sources\c99\common\doprnt.c: 516:     if (g.f < 0.0) {
  1702   002626  BF87               	btfsc	(efgtoa@g+3)& (0+255),7,b
  1703   002628  EF1A  F013         	goto	i2u295_40
  1704   00262C  EF18  F013         	goto	i2u295_41
  1705   002630                     i2u295_41:
  1706   002630  EF2E  F013         	goto	i2l2961
  1707   002634                     i2u295_40:
  1708   002634                     
  1709                           ; BSR set to: 5
  1710                           ;D:\XC8\pic\sources\c99\common\doprnt.c: 517:         sign = 1;
  1711   002634  0E01               	movlw	1
  1712   002636  6F81               	movwf	efgtoa@sign& (0+255),b
  1713   002638                     
  1714                           ; BSR set to: 5
  1715                           ;D:\XC8\pic\sources\c99\common\doprnt.c: 518:         g.f = -g.f;
  1716   002638  C584  F501         	movff	efgtoa@g,___flneg@f1
  1717   00263C  C585  F502         	movff	efgtoa@g+1,___flneg@f1+1
  1718   002640  C586  F503         	movff	efgtoa@g+2,___flneg@f1+2
  1719   002644  C587  F504         	movff	efgtoa@g+3,___flneg@f1+3
  1720   002648  EC72  F025         	call	___flneg	;wreg free
  1721   00264C  C501  F584         	movff	?___flneg,efgtoa@g
  1722   002650  C502  F585         	movff	?___flneg+1,efgtoa@g+1
  1723   002654  C503  F586         	movff	?___flneg+2,efgtoa@g+2
  1724   002658  C504  F587         	movff	?___flneg+3,efgtoa@g+3
  1725   00265C                     i2l2961:
  1726                           
  1727                           ;D:\XC8\pic\sources\c99\common\doprnt.c: 522:     n = 0;
  1728   00265C  0E00               	movlw	0
  1729   00265E  0105               	movlb	5	; () banked
  1730   002660  6F83               	movwf	(efgtoa@n+1)& (0+255),b
  1731   002662  0E00               	movlw	0
  1732   002664  6F82               	movwf	efgtoa@n& (0+255),b
  1733   002666                     
  1734                           ; BSR set to: 5
  1735                           ;D:\XC8\pic\sources\c99\common\doprnt.c: 523:     w = width;
  1736   002666  C5B7  F571         	movff	_width,efgtoa@w
  1737   00266A  C5B8  F572         	movff	_width+1,efgtoa@w+1
  1738   00266E                     
  1739                           ; BSR set to: 5
  1740                           ;D:\XC8\pic\sources\c99\common\doprnt.c: 524:     if (sign
  1741   00266E  5181               	movf	efgtoa@sign& (0+255),w,b
  1742   002670  B4D8               	btfsc	status,2,c
  1743   002672  EF3D  F013         	goto	i2u296_41
  1744   002676  EF3F  F013         	goto	i2u296_40
  1745   00267A                     i2u296_41:
  1746   00267A  EF53  F013         	goto	i2l2975
  1747   00267E                     i2u296_40:
  1748   00267E                     
  1749                           ; BSR set to: 5
  1750                           ;D:\XC8\pic\sources\c99\common\doprnt.c: 528:    ) {;D:\XC8\pic\sources\c99\common\doprn
      +                          t.c: 529:   sign = sign ? '-' : '+';
  1751   00267E  5181               	movf	efgtoa@sign& (0+255),w,b
  1752   002680  A4D8               	btfss	status,2,c
  1753   002682  EF45  F013         	goto	i2u297_41
  1754   002686  EF47  F013         	goto	i2u297_40
  1755   00268A                     i2u297_41:
  1756   00268A  EF4D  F013         	goto	i2l2971
  1757   00268E                     i2u297_40:
  1758   00268E                     
  1759                           ; BSR set to: 5
  1760   00268E  0E00               	movlw	0
  1761   002690  6F67               	movwf	(_efgtoa$1148+1)& (0+255),b
  1762   002692  0E2B               	movlw	43
  1763   002694  6F66               	movwf	_efgtoa$1148& (0+255),b
  1764   002696  EF51  F013         	goto	i2l2973
  1765   00269A                     i2l2971:
  1766                           
  1767                           ; BSR set to: 5
  1768   00269A  0E00               	movlw	0
  1769   00269C  6F67               	movwf	(_efgtoa$1148+1)& (0+255),b
  1770   00269E  0E2D               	movlw	45
  1771   0026A0  6F66               	movwf	_efgtoa$1148& (0+255),b
  1772   0026A2                     i2l2973:
  1773                           
  1774                           ; BSR set to: 5
  1775   0026A2  C566  F581         	movff	_efgtoa$1148,efgtoa@sign
  1776   0026A6                     i2l2975:
  1777                           
  1778                           ; BSR set to: 5
  1779                           ;D:\XC8\pic\sources\c99\common\doprnt.c: 538:     if (( __fpclassifyf(g.f) == 1 )) {
  1780   0026A6  C584  F501         	movff	efgtoa@g,___fpclassifyf@x
  1781   0026AA  C585  F502         	movff	efgtoa@g+1,___fpclassifyf@x+1
  1782   0026AE  C586  F503         	movff	efgtoa@g+2,___fpclassifyf@x+2
  1783   0026B2  C587  F504         	movff	efgtoa@g+3,___fpclassifyf@x+3
  1784   0026B6  EC48  F022         	call	___fpclassifyf	;wreg free
  1785   0026BA  0401               	decf	?___fpclassifyf^(0+1280),w,c
  1786   0026BC  1002               	iorwf	(?___fpclassifyf+1)^(0+1280),w,c
  1787   0026BE  A4D8               	btfss	status,2,c
  1788   0026C0  EF64  F013         	goto	i2u298_41
  1789   0026C4  EF66  F013         	goto	i2u298_40
  1790   0026C8                     i2u298_41:
  1791   0026C8  EF99  F013         	goto	i2l2993
  1792   0026CC                     i2u298_40:
  1793   0026CC                     
  1794                           ;D:\XC8\pic\sources\c99\common\doprnt.c: 539:   if (sign) {
  1795   0026CC  0105               	movlb	5	; () banked
  1796   0026CE  5181               	movf	efgtoa@sign& (0+255),w,b
  1797   0026D0  B4D8               	btfsc	status,2,c
  1798   0026D2  EF6D  F013         	goto	i2u299_41
  1799   0026D6  EF6F  F013         	goto	i2u299_40
  1800   0026DA                     i2u299_41:
  1801   0026DA  EF78  F013         	goto	i2l2985
  1802   0026DE                     i2u299_40:
  1803   0026DE                     
  1804                           ; BSR set to: 5
  1805                           ;D:\XC8\pic\sources\c99\common\doprnt.c: 540:    dbuf[0] = sign;
  1806   0026DE  C581  F600         	movff	efgtoa@sign,_dbuf
  1807   0026E2                     
  1808                           ; BSR set to: 5
  1809                           ;D:\XC8\pic\sources\c99\common\doprnt.c: 541:    w--;
  1810   0026E2  0771               	decf	efgtoa@w& (0+255),f,b
  1811   0026E4  A0D8               	btfss	status,0,c
  1812   0026E6  0772               	decf	(efgtoa@w+1)& (0+255),f,b
  1813   0026E8                     
  1814                           ; BSR set to: 5
  1815                           ;D:\XC8\pic\sources\c99\common\doprnt.c: 542:    n = 1;
  1816   0026E8  0E00               	movlw	0
  1817   0026EA  6F83               	movwf	(efgtoa@n+1)& (0+255),b
  1818   0026EC  0E01               	movlw	1
  1819   0026EE  6F82               	movwf	efgtoa@n& (0+255),b
  1820   0026F0                     i2l2985:
  1821                           
  1822                           ; BSR set to: 5
  1823                           ;D:\XC8\pic\sources\c99\common\doprnt.c: 550:   {;D:\XC8\pic\sources\c99\common\doprnt.c
      +                          : 551:             strcpy(&dbuf[n], "inf");
  1824   0026F0  0E00               	movlw	low _dbuf
  1825   0026F2  2582               	addwf	efgtoa@n& (0+255),w,b
  1826   0026F4  6E01               	movwf	strcpy@dest^(0+1280),c
  1827   0026F6  0E06               	movlw	high _dbuf
  1828   0026F8  2183               	addwfc	(efgtoa@n+1)& (0+255),w,b
  1829   0026FA  6E02               	movwf	(strcpy@dest+1)^(0+1280),c
  1830   0026FC  0E06               	movlw	low STR_2
  1831   0026FE  6E03               	movwf	strcpy@src^(0+1280),c
  1832   002700  0E26               	movlw	high STR_2
  1833   002702  6E04               	movwf	(strcpy@src+1)^(0+1280),c
  1834   002704  EC2E  F025         	call	_strcpy	;wreg free
  1835   002708                     i2l2987:
  1836                           
  1837                           ;D:\XC8\pic\sources\c99\common\doprnt.c: 552:         };D:\XC8\pic\sources\c99\common\do
      +                          prnt.c: 553:         w -= ((sizeof("inf")/sizeof("inf"[0]))-1);
  1838   002708  0105               	movlb	5	; () banked
  1839   00270A  0EFD               	movlw	253
  1840   00270C  2771               	addwf	efgtoa@w& (0+255),f,b
  1841   00270E  0EFF               	movlw	255
  1842   002710  2372               	addwfc	(efgtoa@w+1)& (0+255),f,b
  1843   002712                     
  1844                           ; BSR set to: 5
  1845                           ;D:\XC8\pic\sources\c99\common\doprnt.c: 554:         return (void) pad(fp, &dbuf[0], w)
      +                          ;
  1846   002712  C534  F511         	movff	efgtoa@fp,pad@fp
  1847   002716  C535  F512         	movff	efgtoa@fp+1,pad@fp+1
  1848   00271A  0E00               	movlw	low _dbuf
  1849   00271C  6E13               	movwf	pad@buf^(0+1280),c
  1850   00271E  0E06               	movlw	high _dbuf
  1851   002720  6E14               	movwf	(pad@buf+1)^(0+1280),c
  1852   002722  C571  F515         	movff	efgtoa@w,pad@p
  1853   002726  C572  F516         	movff	efgtoa@w+1,pad@p+1
  1854   00272A  ECF9  F023         	call	_pad	;wreg free
  1855   00272E  EF05  F018         	goto	i2l920
  1856   002732                     i2l2993:
  1857                           
  1858                           ;D:\XC8\pic\sources\c99\common\doprnt.c: 556:     if (( __fpclassifyf(g.f) == 0 )) {
  1859   002732  C584  F501         	movff	efgtoa@g,___fpclassifyf@x
  1860   002736  C585  F502         	movff	efgtoa@g+1,___fpclassifyf@x+1
  1861   00273A  C586  F503         	movff	efgtoa@g+2,___fpclassifyf@x+2
  1862   00273E  C587  F504         	movff	efgtoa@g+3,___fpclassifyf@x+3
  1863   002742  EC48  F022         	call	___fpclassifyf	;wreg free
  1864   002746  5001               	movf	?___fpclassifyf^(0+1280),w,c
  1865   002748  1002               	iorwf	(?___fpclassifyf+1)^(0+1280),w,c
  1866   00274A  A4D8               	btfss	status,2,c
  1867   00274C  EFAA  F013         	goto	i2u300_41
  1868   002750  EFAC  F013         	goto	i2u300_40
  1869   002754                     i2u300_41:
  1870   002754  EFCC  F013         	goto	i2l3011
  1871   002758                     i2u300_40:
  1872   002758                     
  1873                           ;D:\XC8\pic\sources\c99\common\doprnt.c: 557:   if (sign) {
  1874   002758  0105               	movlb	5	; () banked
  1875   00275A  5181               	movf	efgtoa@sign& (0+255),w,b
  1876   00275C  B4D8               	btfsc	status,2,c
  1877   00275E  EFB3  F013         	goto	i2u301_41
  1878   002762  EFB5  F013         	goto	i2u301_40
  1879   002766                     i2u301_41:
  1880   002766  EFBE  F013         	goto	i2l3003
  1881   00276A                     i2u301_40:
  1882   00276A                     
  1883                           ; BSR set to: 5
  1884                           ;D:\XC8\pic\sources\c99\common\doprnt.c: 558:    dbuf[0] = sign;
  1885   00276A  C581  F600         	movff	efgtoa@sign,_dbuf
  1886   00276E                     
  1887                           ; BSR set to: 5
  1888                           ;D:\XC8\pic\sources\c99\common\doprnt.c: 559:    w--;
  1889   00276E  0771               	decf	efgtoa@w& (0+255),f,b
  1890   002770  A0D8               	btfss	status,0,c
  1891   002772  0772               	decf	(efgtoa@w+1)& (0+255),f,b
  1892   002774                     
  1893                           ; BSR set to: 5
  1894                           ;D:\XC8\pic\sources\c99\common\doprnt.c: 560:    n = 1;
  1895   002774  0E00               	movlw	0
  1896   002776  6F83               	movwf	(efgtoa@n+1)& (0+255),b
  1897   002778  0E01               	movlw	1
  1898   00277A  6F82               	movwf	efgtoa@n& (0+255),b
  1899   00277C                     i2l3003:
  1900                           
  1901                           ; BSR set to: 5
  1902                           ;D:\XC8\pic\sources\c99\common\doprnt.c: 568:   {;D:\XC8\pic\sources\c99\common\doprnt.c
      +                          : 569:             strcpy(&dbuf[n], "nan");
  1903   00277C  0E00               	movlw	low _dbuf
  1904   00277E  2582               	addwf	efgtoa@n& (0+255),w,b
  1905   002780  6E01               	movwf	strcpy@dest^(0+1280),c
  1906   002782  0E06               	movlw	high _dbuf
  1907   002784  2183               	addwfc	(efgtoa@n+1)& (0+255),w,b
  1908   002786  6E02               	movwf	(strcpy@dest+1)^(0+1280),c
  1909   002788  0E0A               	movlw	low STR_5
  1910   00278A  6E03               	movwf	strcpy@src^(0+1280),c
  1911   00278C  0E26               	movlw	high STR_5
  1912   00278E  6E04               	movwf	(strcpy@src+1)^(0+1280),c
  1913   002790  EC2E  F025         	call	_strcpy	;wreg free
  1914   002794  EF84  F013         	goto	i2l2987
  1915   002798                     i2l3011:
  1916                           
  1917                           ;D:\XC8\pic\sources\c99\common\doprnt.c: 576:     u.f = 1.0;
  1918   002798  0E00               	movlw	0
  1919   00279A  0105               	movlb	5	; () banked
  1920   00279C  6F88               	movwf	efgtoa@u& (0+255),b
  1921   00279E  0E00               	movlw	0
  1922   0027A0  6F89               	movwf	(efgtoa@u+1)& (0+255),b
  1923   0027A2  0E80               	movlw	128
  1924   0027A4  6F8A               	movwf	(efgtoa@u+2)& (0+255),b
  1925   0027A6  0E3F               	movlw	63
  1926   0027A8  6F8B               	movwf	(efgtoa@u+3)& (0+255),b
  1927                           
  1928                           ;D:\XC8\pic\sources\c99\common\doprnt.c: 577:     e = 0;
  1929   0027AA  0E00               	movlw	0
  1930   0027AC  6F70               	movwf	(efgtoa@e+1)& (0+255),b
  1931   0027AE  0E00               	movlw	0
  1932   0027B0  6F6F               	movwf	efgtoa@e& (0+255),b
  1933   0027B2                     
  1934                           ; BSR set to: 5
  1935                           ;D:\XC8\pic\sources\c99\common\doprnt.c: 578:  if (!(g.f == 0.0)) {
  1936   0027B2  C584  F501         	movff	efgtoa@g,___fleq@ff1
  1937   0027B6  C585  F502         	movff	efgtoa@g+1,___fleq@ff1+1
  1938   0027BA  C586  F503         	movff	efgtoa@g+2,___fleq@ff1+2
  1939   0027BE  C587  F504         	movff	efgtoa@g+3,___fleq@ff1+3
  1940   0027C2  0E00               	movlw	0
  1941   0027C4  6E05               	movwf	___fleq@ff2^(0+1280),c
  1942   0027C6  0E00               	movlw	0
  1943   0027C8  6E06               	movwf	(___fleq@ff2+1)^(0+1280),c
  1944   0027CA  0E00               	movlw	0
  1945   0027CC  6E07               	movwf	(___fleq@ff2+2)^(0+1280),c
  1946   0027CE  0E00               	movlw	0
  1947   0027D0  6E08               	movwf	(___fleq@ff2+3)^(0+1280),c
  1948   0027D2  ECA4  F023         	call	___fleq	;wreg free
  1949   0027D6  B0D8               	btfsc	status,0,c
  1950   0027D8  EFF0  F013         	goto	i2u302_41
  1951   0027DC  EFF2  F013         	goto	i2u302_40
  1952   0027E0                     i2u302_41:
  1953   0027E0  EFD1  F014         	goto	i2l923
  1954   0027E4                     i2u302_40:
  1955   0027E4  EFFF  F013         	goto	i2l3019
  1956   0027E8                     i2l925:
  1957                           
  1958                           ;D:\XC8\pic\sources\c99\common\doprnt.c: 580:    u = ou;
  1959   0027E8  C573  F588         	movff	efgtoa@ou,efgtoa@u
  1960   0027EC  C574  F589         	movff	efgtoa@ou+1,efgtoa@u+1
  1961   0027F0  C575  F58A         	movff	efgtoa@ou+2,efgtoa@u+2
  1962   0027F4  C576  F58B         	movff	efgtoa@ou+3,efgtoa@u+3
  1963   0027F8                     
  1964                           ;D:\XC8\pic\sources\c99\common\doprnt.c: 581:    ++e;
  1965   0027F8  0105               	movlb	5	; () banked
  1966   0027FA  4B6F               	infsnz	efgtoa@e& (0+255),f,b
  1967   0027FC  2B70               	incf	(efgtoa@e+1)& (0+255),f,b
  1968   0027FE                     i2l3019:
  1969                           
  1970                           ;D:\XC8\pic\sources\c99\common\doprnt.c: 579:   while ((labs((g).u-((ou.f = u.f*10.0,ou)
      +                          ).u) <= 1) || g.f > ou.f) {
  1971   0027FE  C588  F50F         	movff	efgtoa@u,___flmul@b
  1972   002802  C589  F510         	movff	efgtoa@u+1,___flmul@b+1
  1973   002806  C58A  F511         	movff	efgtoa@u+2,___flmul@b+2
  1974   00280A  C58B  F512         	movff	efgtoa@u+3,___flmul@b+3
  1975   00280E  0E00               	movlw	0
  1976   002810  6E13               	movwf	___flmul@a^(0+1280),c
  1977   002812  0E00               	movlw	0
  1978   002814  6E14               	movwf	(___flmul@a+1)^(0+1280),c
  1979   002816  0E20               	movlw	32
  1980   002818  6E15               	movwf	(___flmul@a+2)^(0+1280),c
  1981   00281A  0E41               	movlw	65
  1982   00281C  6E16               	movwf	(___flmul@a+3)^(0+1280),c
  1983   00281E  EC66  F01A         	call	___flmul	;wreg free
  1984   002822  C50F  F573         	movff	?___flmul,efgtoa@ou
  1985   002826  C510  F574         	movff	?___flmul+1,efgtoa@ou+1
  1986   00282A  C511  F575         	movff	?___flmul+2,efgtoa@ou+2
  1987   00282E  C512  F576         	movff	?___flmul+3,efgtoa@ou+3
  1988   002832  0105               	movlb	5	; () banked
  1989   002834  5173               	movf	efgtoa@ou& (0+255),w,b
  1990   002836  5D84               	subwf	efgtoa@g& (0+255),w,b
  1991   002838  6E01               	movwf	labs@a^(0+1280),c
  1992   00283A  5174               	movf	(efgtoa@ou+1)& (0+255),w,b
  1993   00283C  5985               	subwfb	(efgtoa@g+1)& (0+255),w,b
  1994   00283E  6E02               	movwf	(labs@a+1)^(0+1280),c
  1995   002840  5175               	movf	(efgtoa@ou+2)& (0+255),w,b
  1996   002842  5986               	subwfb	(efgtoa@g+2)& (0+255),w,b
  1997   002844  6E03               	movwf	(labs@a+2)^(0+1280),c
  1998   002846  5176               	movf	(efgtoa@ou+3)& (0+255),w,b
  1999   002848  5987               	subwfb	(efgtoa@g+3)& (0+255),w,b
  2000   00284A  6E04               	movwf	(labs@a+3)^(0+1280),c
  2001   00284C  EC36  F024         	call	_labs	;wreg free
  2002   002850  BE04               	btfsc	(?_labs+3)^(0+1280),7,c
  2003   002852  EF36  F014         	goto	i2u303_41
  2004   002856  5004               	movf	(?_labs+3)^(0+1280),w,c
  2005   002858  1003               	iorwf	(?_labs+2)^(0+1280),w,c
  2006   00285A  1002               	iorwf	(?_labs+1)^(0+1280),w,c
  2007   00285C  E109               	bnz	i2u303_40
  2008   00285E  0E02               	movlw	2
  2009   002860  5C01               	subwf	?_labs^(0+1280),w,c
  2010   002862  A0D8               	btfss	status,0,c
  2011   002864  EF36  F014         	goto	i2u303_41
  2012   002868  EF38  F014         	goto	i2u303_40
  2013   00286C                     i2u303_41:
  2014   00286C  EFF4  F013         	goto	i2l925
  2015   002870                     i2u303_40:
  2016   002870  C573  F528         	movff	efgtoa@ou,___flge@ff1
  2017   002874  C574  F529         	movff	efgtoa@ou+1,___flge@ff1+1
  2018   002878  C575  F52A         	movff	efgtoa@ou+2,___flge@ff1+2
  2019   00287C  C576  F52B         	movff	efgtoa@ou+3,___flge@ff1+3
  2020   002880  C584  F52C         	movff	efgtoa@g,___flge@ff2
  2021   002884  C585  F52D         	movff	efgtoa@g+1,___flge@ff2+1
  2022   002888  C586  F52E         	movff	efgtoa@g+2,___flge@ff2+2
  2023   00288C  C587  F52F         	movff	efgtoa@g+3,___flge@ff2+3
  2024   002890  ECC6  F021         	call	___flge	;wreg free
  2025   002894  A0D8               	btfss	status,0,c
  2026   002896  EF4F  F014         	goto	i2u304_41
  2027   00289A  EF51  F014         	goto	i2u304_40
  2028   00289E                     i2u304_41:
  2029   00289E  EFF4  F013         	goto	i2l925
  2030   0028A2                     i2u304_40:
  2031   0028A2                     
  2032                           ;D:\XC8\pic\sources\c99\common\doprnt.c: 583:   if ((labs((g).u-(u).u) <= 1)) {
  2033   0028A2  0105               	movlb	5	; () banked
  2034   0028A4  5188               	movf	efgtoa@u& (0+255),w,b
  2035   0028A6  5D84               	subwf	efgtoa@g& (0+255),w,b
  2036   0028A8  6E01               	movwf	labs@a^(0+1280),c
  2037   0028AA  5189               	movf	(efgtoa@u+1)& (0+255),w,b
  2038   0028AC  5985               	subwfb	(efgtoa@g+1)& (0+255),w,b
  2039   0028AE  6E02               	movwf	(labs@a+1)^(0+1280),c
  2040   0028B0  518A               	movf	(efgtoa@u+2)& (0+255),w,b
  2041   0028B2  5986               	subwfb	(efgtoa@g+2)& (0+255),w,b
  2042   0028B4  6E03               	movwf	(labs@a+2)^(0+1280),c
  2043   0028B6  518B               	movf	(efgtoa@u+3)& (0+255),w,b
  2044   0028B8  5987               	subwfb	(efgtoa@g+3)& (0+255),w,b
  2045   0028BA  6E04               	movwf	(labs@a+3)^(0+1280),c
  2046   0028BC  EC36  F024         	call	_labs	;wreg free
  2047   0028C0  BE04               	btfsc	(?_labs+3)^(0+1280),7,c
  2048   0028C2  EF70  F014         	goto	i2u305_40
  2049   0028C6  5004               	movf	(?_labs+3)^(0+1280),w,c
  2050   0028C8  1003               	iorwf	(?_labs+2)^(0+1280),w,c
  2051   0028CA  1002               	iorwf	(?_labs+1)^(0+1280),w,c
  2052   0028CC  E107               	bnz	i2u305_41
  2053   0028CE  0E02               	movlw	2
  2054   0028D0  5C01               	subwf	?_labs^(0+1280),w,c
  2055   0028D2  B0D8               	btfsc	status,0,c
  2056   0028D4  EF6E  F014         	goto	i2u305_41
  2057   0028D8  EF70  F014         	goto	i2u305_40
  2058   0028DC                     i2u305_41:
  2059   0028DC  EFB8  F014         	goto	i2l3037
  2060   0028E0                     i2u305_40:
  2061   0028E0                     i2l3027:
  2062                           
  2063                           ;D:\XC8\pic\sources\c99\common\doprnt.c: 584:    g = u;
  2064   0028E0  C588  F584         	movff	efgtoa@u,efgtoa@g
  2065   0028E4  C589  F585         	movff	efgtoa@u+1,efgtoa@g+1
  2066   0028E8  C58A  F586         	movff	efgtoa@u+2,efgtoa@g+2
  2067   0028EC  C58B  F587         	movff	efgtoa@u+3,efgtoa@g+3
  2068                           
  2069                           ;D:\XC8\pic\sources\c99\common\doprnt.c: 585:   }
  2070   0028F0  EFD1  F014         	goto	i2l923
  2071   0028F4                     i2l3029:
  2072                           
  2073                           ;D:\XC8\pic\sources\c99\common\doprnt.c: 588:     u.f = u.f/10.0;
  2074   0028F4  C588  F501         	movff	efgtoa@u,___fldiv@b
  2075   0028F8  C589  F502         	movff	efgtoa@u+1,___fldiv@b+1
  2076   0028FC  C58A  F503         	movff	efgtoa@u+2,___fldiv@b+2
  2077   002900  C58B  F504         	movff	efgtoa@u+3,___fldiv@b+3
  2078   002904  0E00               	movlw	0
  2079   002906  6E05               	movwf	___fldiv@a^(0+1280),c
  2080   002908  0E00               	movlw	0
  2081   00290A  6E06               	movwf	(___fldiv@a+1)^(0+1280),c
  2082   00290C  0E20               	movlw	32
  2083   00290E  6E07               	movwf	(___fldiv@a+2)^(0+1280),c
  2084   002910  0E41               	movlw	65
  2085   002912  6E08               	movwf	(___fldiv@a+3)^(0+1280),c
  2086   002914  EC7B  F01C         	call	___fldiv	;wreg free
  2087   002918  C501  F588         	movff	?___fldiv,efgtoa@u
  2088   00291C  C502  F589         	movff	?___fldiv+1,efgtoa@u+1
  2089   002920  C503  F58A         	movff	?___fldiv+2,efgtoa@u+2
  2090   002924  C504  F58B         	movff	?___fldiv+3,efgtoa@u+3
  2091   002928                     
  2092                           ;D:\XC8\pic\sources\c99\common\doprnt.c: 589:     --e;
  2093   002928  0105               	movlb	5	; () banked
  2094   00292A  076F               	decf	efgtoa@e& (0+255),f,b
  2095   00292C  A0D8               	btfss	status,0,c
  2096   00292E  0770               	decf	(efgtoa@e+1)& (0+255),f,b
  2097   002930                     
  2098                           ; BSR set to: 5
  2099                           ;D:\XC8\pic\sources\c99\common\doprnt.c: 590:     if ((labs((g).u-(u).u) <= 1)) {
  2100   002930  5188               	movf	efgtoa@u& (0+255),w,b
  2101   002932  5D84               	subwf	efgtoa@g& (0+255),w,b
  2102   002934  6E01               	movwf	labs@a^(0+1280),c
  2103   002936  5189               	movf	(efgtoa@u+1)& (0+255),w,b
  2104   002938  5985               	subwfb	(efgtoa@g+1)& (0+255),w,b
  2105   00293A  6E02               	movwf	(labs@a+1)^(0+1280),c
  2106   00293C  518A               	movf	(efgtoa@u+2)& (0+255),w,b
  2107   00293E  5986               	subwfb	(efgtoa@g+2)& (0+255),w,b
  2108   002940  6E03               	movwf	(labs@a+2)^(0+1280),c
  2109   002942  518B               	movf	(efgtoa@u+3)& (0+255),w,b
  2110   002944  5987               	subwfb	(efgtoa@g+3)& (0+255),w,b
  2111   002946  6E04               	movwf	(labs@a+3)^(0+1280),c
  2112   002948  EC36  F024         	call	_labs	;wreg free
  2113   00294C  BE04               	btfsc	(?_labs+3)^(0+1280),7,c
  2114   00294E  EFB6  F014         	goto	i2u306_40
  2115   002952  5004               	movf	(?_labs+3)^(0+1280),w,c
  2116   002954  1003               	iorwf	(?_labs+2)^(0+1280),w,c
  2117   002956  1002               	iorwf	(?_labs+1)^(0+1280),w,c
  2118   002958  E107               	bnz	i2u306_41
  2119   00295A  0E02               	movlw	2
  2120   00295C  5C01               	subwf	?_labs^(0+1280),w,c
  2121   00295E  B0D8               	btfsc	status,0,c
  2122   002960  EFB4  F014         	goto	i2u306_41
  2123   002964  EFB6  F014         	goto	i2u306_40
  2124   002968                     i2u306_41:
  2125   002968  EFB8  F014         	goto	i2l3037
  2126   00296C                     i2u306_40:
  2127   00296C  EF70  F014         	goto	i2l3027
  2128   002970                     i2l3037:
  2129                           
  2130                           ;D:\XC8\pic\sources\c99\common\doprnt.c: 587:    while (g.f < u.f) {
  2131   002970  C584  F528         	movff	efgtoa@g,___flge@ff1
  2132   002974  C585  F529         	movff	efgtoa@g+1,___flge@ff1+1
  2133   002978  C586  F52A         	movff	efgtoa@g+2,___flge@ff1+2
  2134   00297C  C587  F52B         	movff	efgtoa@g+3,___flge@ff1+3
  2135   002980  C588  F52C         	movff	efgtoa@u,___flge@ff2
  2136   002984  C589  F52D         	movff	efgtoa@u+1,___flge@ff2+1
  2137   002988  C58A  F52E         	movff	efgtoa@u+2,___flge@ff2+2
  2138   00298C  C58B  F52F         	movff	efgtoa@u+3,___flge@ff2+3
  2139   002990  ECC6  F021         	call	___flge	;wreg free
  2140   002994  A0D8               	btfss	status,0,c
  2141   002996  EFCF  F014         	goto	i2u307_41
  2142   00299A  EFD1  F014         	goto	i2u307_40
  2143   00299E                     i2u307_41:
  2144   00299E  EF7A  F014         	goto	i2l3029
  2145   0029A2                     i2u307_40:
  2146   0029A2                     i2l923:
  2147                           
  2148                           ;D:\XC8\pic\sources\c99\common\doprnt.c: 602:  mode = c;
  2149   0029A2  C53A  F569         	movff	efgtoa@c,efgtoa@mode
  2150                           
  2151                           ;D:\XC8\pic\sources\c99\common\doprnt.c: 604:     nmode = mode;
  2152   0029A6  C569  F56A         	movff	efgtoa@mode,efgtoa@nmode
  2153   0029AA                     
  2154                           ;D:\XC8\pic\sources\c99\common\doprnt.c: 614:  {;D:\XC8\pic\sources\c99\common\doprnt.c:
      +                           615:         p = (prec < 0) ? 6 : prec;
  2155   0029AA  BE5F               	btfsc	(_prec+1)^(0+1280),7,c
  2156   0029AC  EFDA  F014         	goto	i2u308_41
  2157   0029B0  EFDC  F014         	goto	i2u308_40
  2158   0029B4                     i2u308_41:
  2159   0029B4  EFE2  F014         	goto	i2l3043
  2160   0029B8                     i2u308_40:
  2161   0029B8  C55E  F562         	movff	_prec,efgtoa@p
  2162   0029BC  C55F  F563         	movff	_prec+1,efgtoa@p+1
  2163   0029C0  EFE7  F014         	goto	i2l3045
  2164   0029C4                     i2l3043:
  2165   0029C4  0E00               	movlw	0
  2166   0029C6  0105               	movlb	5	; () banked
  2167   0029C8  6F63               	movwf	(efgtoa@p+1)& (0+255),b
  2168   0029CA  0E06               	movlw	6
  2169   0029CC  6F62               	movwf	efgtoa@p& (0+255),b
  2170   0029CE                     i2l3045:
  2171                           
  2172                           ;D:\XC8\pic\sources\c99\common\doprnt.c: 616:     };D:\XC8\pic\sources\c99\common\doprnt
      +                          .c: 630:     m = p;
  2173   0029CE  C562  F56D         	movff	efgtoa@p,efgtoa@m
  2174   0029D2  C563  F56E         	movff	efgtoa@p+1,efgtoa@m+1
  2175   0029D6                     
  2176                           ;D:\XC8\pic\sources\c99\common\doprnt.c: 634:  {;D:\XC8\pic\sources\c99\common\doprnt.c:
      +                           635:         ++m;
  2177   0029D6  0105               	movlb	5	; () banked
  2178   0029D8  4B6D               	infsnz	efgtoa@m& (0+255),f,b
  2179   0029DA  2B6E               	incf	(efgtoa@m+1)& (0+255),f,b
  2180   0029DC                     
  2181                           ; BSR set to: 5
  2182                           ;D:\XC8\pic\sources\c99\common\doprnt.c: 636:     };D:\XC8\pic\sources\c99\common\doprnt
      +                          .c: 640:     if (nmode == 'f') {
  2183   0029DC  0E66               	movlw	102
  2184   0029DE  196A               	xorwf	efgtoa@nmode& (0+255),w,b
  2185   0029E0  A4D8               	btfss	status,2,c
  2186   0029E2  EFF5  F014         	goto	i2u309_41
  2187   0029E6  EFF7  F014         	goto	i2u309_40
  2188   0029EA                     i2u309_41:
  2189   0029EA  EF17  F015         	goto	i2l3059
  2190   0029EE                     i2u309_40:
  2191   0029EE                     
  2192                           ; BSR set to: 5
  2193                           ;D:\XC8\pic\sources\c99\common\doprnt.c: 641:         if (e < 0) {
  2194   0029EE  BF70               	btfsc	(efgtoa@e+1)& (0+255),7,b
  2195   0029F0  EFFE  F014         	goto	i2u310_40
  2196   0029F4  EFFC  F014         	goto	i2u310_41
  2197   0029F8                     i2u310_41:
  2198   0029F8  EF0A  F015         	goto	i2l3055
  2199   0029FC                     i2u310_40:
  2200   0029FC                     
  2201                           ; BSR set to: 5
  2202                           ;D:\XC8\pic\sources\c99\common\doprnt.c: 642:             u.f = 1.0;
  2203   0029FC  0E00               	movlw	0
  2204   0029FE  6F88               	movwf	efgtoa@u& (0+255),b
  2205   002A00  0E00               	movlw	0
  2206   002A02  6F89               	movwf	(efgtoa@u+1)& (0+255),b
  2207   002A04  0E80               	movlw	128
  2208   002A06  6F8A               	movwf	(efgtoa@u+2)& (0+255),b
  2209   002A08  0E3F               	movlw	63
  2210   002A0A  6F8B               	movwf	(efgtoa@u+3)& (0+255),b
  2211                           
  2212                           ;D:\XC8\pic\sources\c99\common\doprnt.c: 643:             e = 0;
  2213   002A0C  0E00               	movlw	0
  2214   002A0E  6F70               	movwf	(efgtoa@e+1)& (0+255),b
  2215   002A10  0E00               	movlw	0
  2216   002A12  6F6F               	movwf	efgtoa@e& (0+255),b
  2217   002A14                     i2l3055:
  2218                           
  2219                           ; BSR set to: 5
  2220                           ;D:\XC8\pic\sources\c99\common\doprnt.c: 645:         if (!(mode == 'g')) {
  2221   002A14  0E67               	movlw	103
  2222   002A16  1969               	xorwf	efgtoa@mode& (0+255),w,b
  2223   002A18  B4D8               	btfsc	status,2,c
  2224   002A1A  EF11  F015         	goto	i2u311_41
  2225   002A1E  EF13  F015         	goto	i2u311_40
  2226   002A22                     i2u311_41:
  2227   002A22  EF17  F015         	goto	i2l3059
  2228   002A26                     i2u311_40:
  2229   002A26                     
  2230                           ; BSR set to: 5
  2231                           ;D:\XC8\pic\sources\c99\common\doprnt.c: 646:             m += e;
  2232   002A26  516F               	movf	efgtoa@e& (0+255),w,b
  2233   002A28  276D               	addwf	efgtoa@m& (0+255),f,b
  2234   002A2A  5170               	movf	(efgtoa@e+1)& (0+255),w,b
  2235   002A2C  236E               	addwfc	(efgtoa@m+1)& (0+255),f,b
  2236   002A2E                     i2l3059:
  2237                           
  2238                           ; BSR set to: 5
  2239                           ;D:\XC8\pic\sources\c99\common\doprnt.c: 652:     i = 0;
  2240   002A2E  0E00               	movlw	0
  2241   002A30  6F78               	movwf	(efgtoa@i+1)& (0+255),b
  2242   002A32  0E00               	movlw	0
  2243   002A34  6F77               	movwf	efgtoa@i& (0+255),b
  2244   002A36                     
  2245                           ; BSR set to: 5
  2246                           ;D:\XC8\pic\sources\c99\common\doprnt.c: 653:     h = g.f;
  2247   002A36  C584  F579         	movff	efgtoa@g,efgtoa@h
  2248   002A3A  C585  F57A         	movff	efgtoa@g+1,efgtoa@h+1
  2249   002A3E  C586  F57B         	movff	efgtoa@g+2,efgtoa@h+2
  2250   002A42  C587  F57C         	movff	efgtoa@g+3,efgtoa@h+3
  2251   002A46                     
  2252                           ; BSR set to: 5
  2253                           ;D:\XC8\pic\sources\c99\common\doprnt.c: 654:     ou = u;
  2254   002A46  C588  F573         	movff	efgtoa@u,efgtoa@ou
  2255   002A4A  C589  F574         	movff	efgtoa@u+1,efgtoa@ou+1
  2256   002A4E  C58A  F575         	movff	efgtoa@u+2,efgtoa@ou+2
  2257   002A52  C58B  F576         	movff	efgtoa@u+3,efgtoa@ou+3
  2258                           
  2259                           ;D:\XC8\pic\sources\c99\common\doprnt.c: 655:     while (i < m) {
  2260   002A56  EFA8  F015         	goto	i2l3073
  2261   002A5A                     i2l3065:
  2262                           
  2263                           ; BSR set to: 5
  2264                           ;D:\XC8\pic\sources\c99\common\doprnt.c: 656:         l = floorf(h/u.f);
  2265   002A5A  C579  F501         	movff	efgtoa@h,___fldiv@b
  2266   002A5E  C57A  F502         	movff	efgtoa@h+1,___fldiv@b+1
  2267   002A62  C57B  F503         	movff	efgtoa@h+2,___fldiv@b+2
  2268   002A66  C57C  F504         	movff	efgtoa@h+3,___fldiv@b+3
  2269   002A6A  C588  F505         	movff	efgtoa@u,___fldiv@a
  2270   002A6E  C589  F506         	movff	efgtoa@u+1,___fldiv@a+1
  2271   002A72  C58A  F507         	movff	efgtoa@u+2,___fldiv@a+2
  2272   002A76  C58B  F508         	movff	efgtoa@u+3,___fldiv@a+3
  2273   002A7A  EC7B  F01C         	call	___fldiv	;wreg free
  2274   002A7E  C501  F51A         	movff	?___fldiv,floorf@x
  2275   002A82  C502  F51B         	movff	?___fldiv+1,floorf@x+1
  2276   002A86  C503  F51C         	movff	?___fldiv+2,floorf@x+2
  2277   002A8A  C504  F51D         	movff	?___fldiv+3,floorf@x+3
  2278   002A8E  EC60  F01F         	call	_floorf	;wreg free
  2279   002A92  C51A  F57D         	movff	?_floorf,efgtoa@l
  2280   002A96  C51B  F57E         	movff	?_floorf+1,efgtoa@l+1
  2281   002A9A  C51C  F57F         	movff	?_floorf+2,efgtoa@l+2
  2282   002A9E  C51D  F580         	movff	?_floorf+3,efgtoa@l+3
  2283                           
  2284                           ;D:\XC8\pic\sources\c99\common\doprnt.c: 657:         d = (int)l;
  2285   002AA2  C57D  F501         	movff	efgtoa@l,___fltol@f1
  2286   002AA6  C57E  F502         	movff	efgtoa@l+1,___fltol@f1+1
  2287   002AAA  C57F  F503         	movff	efgtoa@l+2,___fltol@f1+2
  2288   002AAE  C580  F504         	movff	efgtoa@l+3,___fltol@f1+3
  2289   002AB2  EC43  F021         	call	___fltol	;wreg free
  2290   002AB6  C501  F56B         	movff	?___fltol,efgtoa@d
  2291   002ABA  C502  F56C         	movff	?___fltol+1,efgtoa@d+1
  2292   002ABE                     
  2293                           ;D:\XC8\pic\sources\c99\common\doprnt.c: 658:         h -= l*u.f;
  2294   002ABE  C579  F528         	movff	efgtoa@h,___flsub@b
  2295   002AC2  C57A  F529         	movff	efgtoa@h+1,___flsub@b+1
  2296   002AC6  C57B  F52A         	movff	efgtoa@h+2,___flsub@b+2
  2297   002ACA  C57C  F52B         	movff	efgtoa@h+3,___flsub@b+3
  2298   002ACE  C57D  F513         	movff	efgtoa@l,___flmul@a
  2299   002AD2  C57E  F514         	movff	efgtoa@l+1,___flmul@a+1
  2300   002AD6  C57F  F515         	movff	efgtoa@l+2,___flmul@a+2
  2301   002ADA  C580  F516         	movff	efgtoa@l+3,___flmul@a+3
  2302   002ADE  C588  F50F         	movff	efgtoa@u,___flmul@b
  2303   002AE2  C589  F510         	movff	efgtoa@u+1,___flmul@b+1
  2304   002AE6  C58A  F511         	movff	efgtoa@u+2,___flmul@b+2
  2305   002AEA  C58B  F512         	movff	efgtoa@u+3,___flmul@b+3
  2306   002AEE  EC66  F01A         	call	___flmul	;wreg free
  2307   002AF2  C50F  F52C         	movff	?___flmul,___flsub@a
  2308   002AF6  C510  F52D         	movff	?___flmul+1,___flsub@a+1
  2309   002AFA  C511  F52E         	movff	?___flmul+2,___flsub@a+2
  2310   002AFE  C512  F52F         	movff	?___flmul+3,___flsub@a+3
  2311   002B02  EC0B  F025         	call	___flsub	;wreg free
  2312   002B06  C528  F579         	movff	?___flsub,efgtoa@h
  2313   002B0A  C529  F57A         	movff	?___flsub+1,efgtoa@h+1
  2314   002B0E  C52A  F57B         	movff	?___flsub+2,efgtoa@h+2
  2315   002B12  C52B  F57C         	movff	?___flsub+3,efgtoa@h+3
  2316   002B16                     
  2317                           ;D:\XC8\pic\sources\c99\common\doprnt.c: 659:         u.f = u.f/10.0;
  2318   002B16  C588  F501         	movff	efgtoa@u,___fldiv@b
  2319   002B1A  C589  F502         	movff	efgtoa@u+1,___fldiv@b+1
  2320   002B1E  C58A  F503         	movff	efgtoa@u+2,___fldiv@b+2
  2321   002B22  C58B  F504         	movff	efgtoa@u+3,___fldiv@b+3
  2322   002B26  0E00               	movlw	0
  2323   002B28  6E05               	movwf	___fldiv@a^(0+1280),c
  2324   002B2A  0E00               	movlw	0
  2325   002B2C  6E06               	movwf	(___fldiv@a+1)^(0+1280),c
  2326   002B2E  0E20               	movlw	32
  2327   002B30  6E07               	movwf	(___fldiv@a+2)^(0+1280),c
  2328   002B32  0E41               	movlw	65
  2329   002B34  6E08               	movwf	(___fldiv@a+3)^(0+1280),c
  2330   002B36  EC7B  F01C         	call	___fldiv	;wreg free
  2331   002B3A  C501  F588         	movff	?___fldiv,efgtoa@u
  2332   002B3E  C502  F589         	movff	?___fldiv+1,efgtoa@u+1
  2333   002B42  C503  F58A         	movff	?___fldiv+2,efgtoa@u+2
  2334   002B46  C504  F58B         	movff	?___fldiv+3,efgtoa@u+3
  2335   002B4A                     
  2336                           ;D:\XC8\pic\sources\c99\common\doprnt.c: 660:         ++i;
  2337   002B4A  0105               	movlb	5	; () banked
  2338   002B4C  4B77               	infsnz	efgtoa@i& (0+255),f,b
  2339   002B4E  2B78               	incf	(efgtoa@i+1)& (0+255),f,b
  2340   002B50                     i2l3073:
  2341                           
  2342                           ; BSR set to: 5
  2343                           ;D:\XC8\pic\sources\c99\common\doprnt.c: 655:     while (i < m) {
  2344   002B50  516D               	movf	efgtoa@m& (0+255),w,b
  2345   002B52  5D77               	subwf	efgtoa@i& (0+255),w,b
  2346   002B54  5178               	movf	(efgtoa@i+1)& (0+255),w,b
  2347   002B56  0A80               	xorlw	128
  2348   002B58  6E3B               	movwf	??_efgtoa^(0+1280),c
  2349   002B5A  516E               	movf	(efgtoa@m+1)& (0+255),w,b
  2350   002B5C  0A80               	xorlw	128
  2351   002B5E  583B               	subwfb	??_efgtoa^(0+1280),w,c
  2352   002B60  A0D8               	btfss	status,0,c
  2353   002B62  EFB5  F015         	goto	i2u312_41
  2354   002B66  EFB7  F015         	goto	i2u312_40
  2355   002B6A                     i2u312_41:
  2356   002B6A  EF2D  F015         	goto	i2l3065
  2357   002B6E                     i2u312_40:
  2358   002B6E                     
  2359                           ; BSR set to: 5
  2360                           ;D:\XC8\pic\sources\c99\common\doprnt.c: 664:     l = u.f*5.0;
  2361   002B6E  C588  F50F         	movff	efgtoa@u,___flmul@b
  2362   002B72  C589  F510         	movff	efgtoa@u+1,___flmul@b+1
  2363   002B76  C58A  F511         	movff	efgtoa@u+2,___flmul@b+2
  2364   002B7A  C58B  F512         	movff	efgtoa@u+3,___flmul@b+3
  2365   002B7E  0E00               	movlw	0
  2366   002B80  6E13               	movwf	___flmul@a^(0+1280),c
  2367   002B82  0E00               	movlw	0
  2368   002B84  6E14               	movwf	(___flmul@a+1)^(0+1280),c
  2369   002B86  0EA0               	movlw	160
  2370   002B88  6E15               	movwf	(___flmul@a+2)^(0+1280),c
  2371   002B8A  0E40               	movlw	64
  2372   002B8C  6E16               	movwf	(___flmul@a+3)^(0+1280),c
  2373   002B8E  EC66  F01A         	call	___flmul	;wreg free
  2374   002B92  C50F  F57D         	movff	?___flmul,efgtoa@l
  2375   002B96  C510  F57E         	movff	?___flmul+1,efgtoa@l+1
  2376   002B9A  C511  F57F         	movff	?___flmul+2,efgtoa@l+2
  2377   002B9E  C512  F580         	movff	?___flmul+3,efgtoa@l+3
  2378   002BA2                     
  2379                           ;D:\XC8\pic\sources\c99\common\doprnt.c: 665:     if (h < l) {
  2380   002BA2  C579  F528         	movff	efgtoa@h,___flge@ff1
  2381   002BA6  C57A  F529         	movff	efgtoa@h+1,___flge@ff1+1
  2382   002BAA  C57B  F52A         	movff	efgtoa@h+2,___flge@ff1+2
  2383   002BAE  C57C  F52B         	movff	efgtoa@h+3,___flge@ff1+3
  2384   002BB2  C57D  F52C         	movff	efgtoa@l,___flge@ff2
  2385   002BB6  C57E  F52D         	movff	efgtoa@l+1,___flge@ff2+1
  2386   002BBA  C57F  F52E         	movff	efgtoa@l+2,___flge@ff2+2
  2387   002BBE  C580  F52F         	movff	efgtoa@l+3,___flge@ff2+3
  2388   002BC2  ECC6  F021         	call	___flge	;wreg free
  2389   002BC6  B0D8               	btfsc	status,0,c
  2390   002BC8  EFE8  F015         	goto	i2u313_41
  2391   002BCC  EFEA  F015         	goto	i2u313_40
  2392   002BD0                     i2u313_41:
  2393   002BD0  EFF5  F015         	goto	i2l3081
  2394   002BD4                     i2u313_40:
  2395   002BD4                     
  2396                           ;D:\XC8\pic\sources\c99\common\doprnt.c: 666:         l = 0.0;
  2397   002BD4  0E00               	movlw	0
  2398   002BD6  0105               	movlb	5	; () banked
  2399   002BD8  6F7D               	movwf	efgtoa@l& (0+255),b
  2400   002BDA  0E00               	movlw	0
  2401   002BDC  6F7E               	movwf	(efgtoa@l+1)& (0+255),b
  2402   002BDE  0E00               	movlw	0
  2403   002BE0  6F7F               	movwf	(efgtoa@l+2)& (0+255),b
  2404   002BE2  0E00               	movlw	0
  2405   002BE4  6F80               	movwf	(efgtoa@l+3)& (0+255),b
  2406                           
  2407                           ;D:\XC8\pic\sources\c99\common\doprnt.c: 667:     } else {
  2408   002BE6  EF1E  F016         	goto	i2l3087
  2409   002BEA                     i2l3081:
  2410                           
  2411                           ;D:\XC8\pic\sources\c99\common\doprnt.c: 669:         if ((h == l) && !(d % 2)) {
  2412   002BEA  C579  F501         	movff	efgtoa@h,___fleq@ff1
  2413   002BEE  C57A  F502         	movff	efgtoa@h+1,___fleq@ff1+1
  2414   002BF2  C57B  F503         	movff	efgtoa@h+2,___fleq@ff1+2
  2415   002BF6  C57C  F504         	movff	efgtoa@h+3,___fleq@ff1+3
  2416   002BFA  C57D  F505         	movff	efgtoa@l,___fleq@ff2
  2417   002BFE  C57E  F506         	movff	efgtoa@l+1,___fleq@ff2+1
  2418   002C02  C57F  F507         	movff	efgtoa@l+2,___fleq@ff2+2
  2419   002C06  C580  F508         	movff	efgtoa@l+3,___fleq@ff2+3
  2420   002C0A  ECA4  F023         	call	___fleq	;wreg free
  2421   002C0E  A0D8               	btfss	status,0,c
  2422   002C10  EF0C  F016         	goto	i2u314_41
  2423   002C14  EF0E  F016         	goto	i2u314_40
  2424   002C18                     i2u314_41:
  2425   002C18  EF1E  F016         	goto	i2l3087
  2426   002C1C                     i2u314_40:
  2427   002C1C  0105               	movlb	5	; () banked
  2428   002C1E  B16B               	btfsc	efgtoa@d& (0+255),0,b
  2429   002C20  EF14  F016         	goto	i2u315_41
  2430   002C24  EF16  F016         	goto	i2u315_40
  2431   002C28                     i2u315_41:
  2432   002C28  EF1E  F016         	goto	i2l3087
  2433   002C2C                     i2u315_40:
  2434   002C2C                     
  2435                           ; BSR set to: 5
  2436                           ;D:\XC8\pic\sources\c99\common\doprnt.c: 670:             l = 0.0;
  2437   002C2C  0E00               	movlw	0
  2438   002C2E  6F7D               	movwf	efgtoa@l& (0+255),b
  2439   002C30  0E00               	movlw	0
  2440   002C32  6F7E               	movwf	(efgtoa@l+1)& (0+255),b
  2441   002C34  0E00               	movlw	0
  2442   002C36  6F7F               	movwf	(efgtoa@l+2)& (0+255),b
  2443   002C38  0E00               	movlw	0
  2444   002C3A  6F80               	movwf	(efgtoa@l+3)& (0+255),b
  2445   002C3C                     i2l3087:
  2446                           
  2447                           ;D:\XC8\pic\sources\c99\common\doprnt.c: 675:     h = g.f + l;
  2448   002C3C  C584  F501         	movff	efgtoa@g,___fladd@b
  2449   002C40  C585  F502         	movff	efgtoa@g+1,___fladd@b+1
  2450   002C44  C586  F503         	movff	efgtoa@g+2,___fladd@b+2
  2451   002C48  C587  F504         	movff	efgtoa@g+3,___fladd@b+3
  2452   002C4C  C57D  F505         	movff	efgtoa@l,___fladd@a
  2453   002C50  C57E  F506         	movff	efgtoa@l+1,___fladd@a+1
  2454   002C54  C57F  F507         	movff	efgtoa@l+2,___fladd@a+2
  2455   002C58  C580  F508         	movff	efgtoa@l+3,___fladd@a+3
  2456   002C5C  EC06  F018         	call	___fladd	;wreg free
  2457   002C60  C501  F579         	movff	?___fladd,efgtoa@h
  2458   002C64  C502  F57A         	movff	?___fladd+1,efgtoa@h+1
  2459   002C68  C503  F57B         	movff	?___fladd+2,efgtoa@h+2
  2460   002C6C  C504  F57C         	movff	?___fladd+3,efgtoa@h+3
  2461   002C70                     
  2462                           ;D:\XC8\pic\sources\c99\common\doprnt.c: 677:  if (h >= (ou.f*10.0)) {
  2463   002C70  C579  F528         	movff	efgtoa@h,___flge@ff1
  2464   002C74  C57A  F529         	movff	efgtoa@h+1,___flge@ff1+1
  2465   002C78  C57B  F52A         	movff	efgtoa@h+2,___flge@ff1+2
  2466   002C7C  C57C  F52B         	movff	efgtoa@h+3,___flge@ff1+3
  2467   002C80  0E00               	movlw	0
  2468   002C82  6E13               	movwf	___flmul@a^(0+1280),c
  2469   002C84  0E00               	movlw	0
  2470   002C86  6E14               	movwf	(___flmul@a+1)^(0+1280),c
  2471   002C88  0E20               	movlw	32
  2472   002C8A  6E15               	movwf	(___flmul@a+2)^(0+1280),c
  2473   002C8C  0E41               	movlw	65
  2474   002C8E  6E16               	movwf	(___flmul@a+3)^(0+1280),c
  2475   002C90  C573  F50F         	movff	efgtoa@ou,___flmul@b
  2476   002C94  C574  F510         	movff	efgtoa@ou+1,___flmul@b+1
  2477   002C98  C575  F511         	movff	efgtoa@ou+2,___flmul@b+2
  2478   002C9C  C576  F512         	movff	efgtoa@ou+3,___flmul@b+3
  2479   002CA0  EC66  F01A         	call	___flmul	;wreg free
  2480   002CA4  C50F  F52C         	movff	?___flmul,___flge@ff2
  2481   002CA8  C510  F52D         	movff	?___flmul+1,___flge@ff2+1
  2482   002CAC  C511  F52E         	movff	?___flmul+2,___flge@ff2+2
  2483   002CB0  C512  F52F         	movff	?___flmul+3,___flge@ff2+3
  2484   002CB4  ECC6  F021         	call	___flge	;wreg free
  2485   002CB8  A0D8               	btfss	status,0,c
  2486   002CBA  EF61  F016         	goto	i2u316_41
  2487   002CBE  EF63  F016         	goto	i2u316_40
  2488   002CC2                     i2u316_41:
  2489   002CC2  EF8C  F016         	goto	i2l3099
  2490   002CC6                     i2u316_40:
  2491   002CC6                     
  2492                           ;D:\XC8\pic\sources\c99\common\doprnt.c: 678:   e++;
  2493   002CC6  0105               	movlb	5	; () banked
  2494   002CC8  4B6F               	infsnz	efgtoa@e& (0+255),f,b
  2495   002CCA  2B70               	incf	(efgtoa@e+1)& (0+255),f,b
  2496   002CCC                     
  2497                           ; BSR set to: 5
  2498                           ;D:\XC8\pic\sources\c99\common\doprnt.c: 679:   ou.f *= 10.0;
  2499   002CCC  C573  F50F         	movff	efgtoa@ou,___flmul@b
  2500   002CD0  C574  F510         	movff	efgtoa@ou+1,___flmul@b+1
  2501   002CD4  C575  F511         	movff	efgtoa@ou+2,___flmul@b+2
  2502   002CD8  C576  F512         	movff	efgtoa@ou+3,___flmul@b+3
  2503   002CDC  0E00               	movlw	0
  2504   002CDE  6E13               	movwf	___flmul@a^(0+1280),c
  2505   002CE0  0E00               	movlw	0
  2506   002CE2  6E14               	movwf	(___flmul@a+1)^(0+1280),c
  2507   002CE4  0E20               	movlw	32
  2508   002CE6  6E15               	movwf	(___flmul@a+2)^(0+1280),c
  2509   002CE8  0E41               	movlw	65
  2510   002CEA  6E16               	movwf	(___flmul@a+3)^(0+1280),c
  2511   002CEC  EC66  F01A         	call	___flmul	;wreg free
  2512   002CF0  C50F  F573         	movff	?___flmul,efgtoa@ou
  2513   002CF4  C510  F574         	movff	?___flmul+1,efgtoa@ou+1
  2514   002CF8  C511  F575         	movff	?___flmul+2,efgtoa@ou+2
  2515   002CFC  C512  F576         	movff	?___flmul+3,efgtoa@ou+3
  2516   002D00                     
  2517                           ;D:\XC8\pic\sources\c99\common\doprnt.c: 681:   if (nmode == 'f') {
  2518   002D00  0E66               	movlw	102
  2519   002D02  0105               	movlb	5	; () banked
  2520   002D04  196A               	xorwf	efgtoa@nmode& (0+255),w,b
  2521   002D06  A4D8               	btfss	status,2,c
  2522   002D08  EF88  F016         	goto	i2u317_41
  2523   002D0C  EF8A  F016         	goto	i2u317_40
  2524   002D10                     i2u317_41:
  2525   002D10  EF8C  F016         	goto	i2l3099
  2526   002D14                     i2u317_40:
  2527   002D14                     
  2528                           ; BSR set to: 5
  2529                           ;D:\XC8\pic\sources\c99\common\doprnt.c: 683:    m++;
  2530   002D14  4B6D               	infsnz	efgtoa@m& (0+255),f,b
  2531   002D16  2B6E               	incf	(efgtoa@m+1)& (0+255),f,b
  2532   002D18                     i2l3099:
  2533                           
  2534                           ;D:\XC8\pic\sources\c99\common\doprnt.c: 689:     u = ou;
  2535   002D18  C573  F588         	movff	efgtoa@ou,efgtoa@u
  2536   002D1C  C574  F589         	movff	efgtoa@ou+1,efgtoa@u+1
  2537   002D20  C575  F58A         	movff	efgtoa@ou+2,efgtoa@u+2
  2538   002D24  C576  F58B         	movff	efgtoa@ou+3,efgtoa@u+3
  2539   002D28                     
  2540                           ;D:\XC8\pic\sources\c99\common\doprnt.c: 693:  ne = e;
  2541   002D28  C56F  F560         	movff	efgtoa@e,efgtoa@ne
  2542   002D2C  C570  F561         	movff	efgtoa@e+1,efgtoa@ne+1
  2543   002D30                     
  2544                           ;D:\XC8\pic\sources\c99\common\doprnt.c: 695:     pp = 0;
  2545   002D30  0E00               	movlw	0
  2546   002D32  0105               	movlb	5	; () banked
  2547   002D34  6F68               	movwf	efgtoa@pp& (0+255),b
  2548   002D36                     
  2549                           ; BSR set to: 5
  2550                           ;D:\XC8\pic\sources\c99\common\doprnt.c: 696:     t = 0;
  2551   002D36  0E00               	movlw	0
  2552   002D38  6F65               	movwf	(efgtoa@t+1)& (0+255),b
  2553   002D3A  0E00               	movlw	0
  2554   002D3C  6F64               	movwf	efgtoa@t& (0+255),b
  2555   002D3E                     
  2556                           ; BSR set to: 5
  2557                           ;D:\XC8\pic\sources\c99\common\doprnt.c: 697:     i = 0;
  2558   002D3E  0E00               	movlw	0
  2559   002D40  6F78               	movwf	(efgtoa@i+1)& (0+255),b
  2560   002D42  0E00               	movlw	0
  2561   002D44  6F77               	movwf	efgtoa@i& (0+255),b
  2562                           
  2563                           ;D:\XC8\pic\sources\c99\common\doprnt.c: 698:     while ((i < m) && (n < (80 - 5))) {
  2564   002D46  EF8A  F017         	goto	i2l3149
  2565   002D4A                     i2l3109:
  2566                           
  2567                           ; BSR set to: 5
  2568                           ;D:\XC8\pic\sources\c99\common\doprnt.c: 699:         l = floorf(h/u.f);
  2569   002D4A  C579  F501         	movff	efgtoa@h,___fldiv@b
  2570   002D4E  C57A  F502         	movff	efgtoa@h+1,___fldiv@b+1
  2571   002D52  C57B  F503         	movff	efgtoa@h+2,___fldiv@b+2
  2572   002D56  C57C  F504         	movff	efgtoa@h+3,___fldiv@b+3
  2573   002D5A  C588  F505         	movff	efgtoa@u,___fldiv@a
  2574   002D5E  C589  F506         	movff	efgtoa@u+1,___fldiv@a+1
  2575   002D62  C58A  F507         	movff	efgtoa@u+2,___fldiv@a+2
  2576   002D66  C58B  F508         	movff	efgtoa@u+3,___fldiv@a+3
  2577   002D6A  EC7B  F01C         	call	___fldiv	;wreg free
  2578   002D6E  C501  F51A         	movff	?___fldiv,floorf@x
  2579   002D72  C502  F51B         	movff	?___fldiv+1,floorf@x+1
  2580   002D76  C503  F51C         	movff	?___fldiv+2,floorf@x+2
  2581   002D7A  C504  F51D         	movff	?___fldiv+3,floorf@x+3
  2582   002D7E  EC60  F01F         	call	_floorf	;wreg free
  2583   002D82  C51A  F57D         	movff	?_floorf,efgtoa@l
  2584   002D86  C51B  F57E         	movff	?_floorf+1,efgtoa@l+1
  2585   002D8A  C51C  F57F         	movff	?_floorf+2,efgtoa@l+2
  2586   002D8E  C51D  F580         	movff	?_floorf+3,efgtoa@l+3
  2587                           
  2588                           ;D:\XC8\pic\sources\c99\common\doprnt.c: 700:         d = (int)l > 9 ? 9 : (int)l;
  2589   002D92  C57D  F501         	movff	efgtoa@l,___fltol@f1
  2590   002D96  C57E  F502         	movff	efgtoa@l+1,___fltol@f1+1
  2591   002D9A  C57F  F503         	movff	efgtoa@l+2,___fltol@f1+2
  2592   002D9E  C580  F504         	movff	efgtoa@l+3,___fltol@f1+3
  2593   002DA2  EC43  F021         	call	___fltol	;wreg free
  2594   002DA6  BE02               	btfsc	(?___fltol+1)^(0+1280),7,c
  2595   002DA8  EFE1  F016         	goto	i2u318_40
  2596   002DAC  5002               	movf	(?___fltol+1)^(0+1280),w,c
  2597   002DAE  E107               	bnz	i2u318_41
  2598   002DB0  0E0A               	movlw	10
  2599   002DB2  5C01               	subwf	?___fltol^(0+1280),w,c
  2600   002DB4  B0D8               	btfsc	status,0,c
  2601   002DB6  EFDF  F016         	goto	i2u318_41
  2602   002DBA  EFE1  F016         	goto	i2u318_40
  2603   002DBE                     i2u318_41:
  2604   002DBE  EFF1  F016         	goto	i2l3113
  2605   002DC2                     i2u318_40:
  2606   002DC2  C57D  F501         	movff	efgtoa@l,___fltol@f1
  2607   002DC6  C57E  F502         	movff	efgtoa@l+1,___fltol@f1+1
  2608   002DCA  C57F  F503         	movff	efgtoa@l+2,___fltol@f1+2
  2609   002DCE  C580  F504         	movff	efgtoa@l+3,___fltol@f1+3
  2610   002DD2  EC43  F021         	call	___fltol	;wreg free
  2611   002DD6  C501  F56B         	movff	?___fltol,efgtoa@d
  2612   002DDA  C502  F56C         	movff	?___fltol+1,efgtoa@d+1
  2613   002DDE  EFF6  F016         	goto	i2l953
  2614   002DE2                     i2l3113:
  2615   002DE2  0E00               	movlw	0
  2616   002DE4  0105               	movlb	5	; () banked
  2617   002DE6  6F6C               	movwf	(efgtoa@d+1)& (0+255),b
  2618   002DE8  0E09               	movlw	9
  2619   002DEA  6F6B               	movwf	efgtoa@d& (0+255),b
  2620   002DEC                     i2l953:
  2621                           
  2622                           ;D:\XC8\pic\sources\c99\common\doprnt.c: 711:   {;D:\XC8\pic\sources\c99\common\doprnt.c
      +                          : 712:             if (!pp && (ne < 0)) {
  2623   002DEC  0105               	movlb	5	; () banked
  2624   002DEE  5168               	movf	efgtoa@pp& (0+255),w,b
  2625   002DF0  A4D8               	btfss	status,2,c
  2626   002DF2  EFFD  F016         	goto	i2u319_41
  2627   002DF6  EFFF  F016         	goto	i2u319_40
  2628   002DFA                     i2u319_41:
  2629   002DFA  EF27  F017         	goto	i2l3133
  2630   002DFE                     i2u319_40:
  2631   002DFE                     
  2632                           ; BSR set to: 5
  2633   002DFE  BF61               	btfsc	(efgtoa@ne+1)& (0+255),7,b
  2634   002E00  EF06  F017         	goto	i2u320_40
  2635   002E04  EF04  F017         	goto	i2u320_41
  2636   002E08                     i2u320_41:
  2637   002E08  EF27  F017         	goto	i2l3133
  2638   002E0C                     i2u320_40:
  2639   002E0C                     
  2640                           ; BSR set to: 5
  2641                           ;D:\XC8\pic\sources\c99\common\doprnt.c: 713:                 dbuf[n++] = '.';
  2642   002E0C  0E00               	movlw	low _dbuf
  2643   002E0E  2582               	addwf	efgtoa@n& (0+255),w,b
  2644   002E10  6ED9               	movwf	fsr2l,c
  2645   002E12  0E06               	movlw	high _dbuf
  2646   002E14  2183               	addwfc	(efgtoa@n+1)& (0+255),w,b
  2647   002E16  6EDA               	movwf	fsr2h,c
  2648   002E18  0E2E               	movlw	46
  2649   002E1A  6EDF               	movwf	indf2,c
  2650   002E1C                     
  2651                           ; BSR set to: 5
  2652   002E1C  4B82               	infsnz	efgtoa@n& (0+255),f,b
  2653   002E1E  2B83               	incf	(efgtoa@n+1)& (0+255),f,b
  2654   002E20                     
  2655                           ; BSR set to: 5
  2656                           ;D:\XC8\pic\sources\c99\common\doprnt.c: 714:                 --w;
  2657   002E20  0771               	decf	efgtoa@w& (0+255),f,b
  2658   002E22  A0D8               	btfss	status,0,c
  2659   002E24  0772               	decf	(efgtoa@w+1)& (0+255),f,b
  2660   002E26                     
  2661                           ; BSR set to: 5
  2662                           ;D:\XC8\pic\sources\c99\common\doprnt.c: 715:                 pp = 1;
  2663   002E26  0E01               	movlw	1
  2664   002E28  6F68               	movwf	efgtoa@pp& (0+255),b
  2665   002E2A  EF27  F017         	goto	i2l3133
  2666   002E2E                     i2l3125:
  2667                           
  2668                           ; BSR set to: 5
  2669                           ;D:\XC8\pic\sources\c99\common\doprnt.c: 718:                 dbuf[n++] = '0';
  2670   002E2E  0E00               	movlw	low _dbuf
  2671   002E30  2582               	addwf	efgtoa@n& (0+255),w,b
  2672   002E32  6ED9               	movwf	fsr2l,c
  2673   002E34  0E06               	movlw	high _dbuf
  2674   002E36  2183               	addwfc	(efgtoa@n+1)& (0+255),w,b
  2675   002E38  6EDA               	movwf	fsr2h,c
  2676   002E3A  0E30               	movlw	48
  2677   002E3C  6EDF               	movwf	indf2,c
  2678   002E3E                     
  2679                           ; BSR set to: 5
  2680   002E3E  4B82               	infsnz	efgtoa@n& (0+255),f,b
  2681   002E40  2B83               	incf	(efgtoa@n+1)& (0+255),f,b
  2682   002E42                     
  2683                           ; BSR set to: 5
  2684                           ;D:\XC8\pic\sources\c99\common\doprnt.c: 719:                 --w;
  2685   002E42  0771               	decf	efgtoa@w& (0+255),f,b
  2686   002E44  A0D8               	btfss	status,0,c
  2687   002E46  0772               	decf	(efgtoa@w+1)& (0+255),f,b
  2688   002E48                     
  2689                           ; BSR set to: 5
  2690                           ;D:\XC8\pic\sources\c99\common\doprnt.c: 720:                 --t;
  2691   002E48  0764               	decf	efgtoa@t& (0+255),f,b
  2692   002E4A  A0D8               	btfss	status,0,c
  2693   002E4C  0765               	decf	(efgtoa@t+1)& (0+255),f,b
  2694   002E4E                     i2l3133:
  2695                           
  2696                           ; BSR set to: 5
  2697                           ;D:\XC8\pic\sources\c99\common\doprnt.c: 717:             while (t) {
  2698   002E4E  5164               	movf	efgtoa@t& (0+255),w,b
  2699   002E50  1165               	iorwf	(efgtoa@t+1)& (0+255),w,b
  2700   002E52  A4D8               	btfss	status,2,c
  2701   002E54  EF2E  F017         	goto	i2u321_41
  2702   002E58  EF30  F017         	goto	i2u321_40
  2703   002E5C                     i2u321_41:
  2704   002E5C  EF17  F017         	goto	i2l3125
  2705   002E60                     i2u321_40:
  2706   002E60                     
  2707                           ; BSR set to: 5
  2708                           ;D:\XC8\pic\sources\c99\common\doprnt.c: 722:             dbuf[n++] = (char)((int)'0' + 
      +                          d);
  2709   002E60  0E00               	movlw	low _dbuf
  2710   002E62  2582               	addwf	efgtoa@n& (0+255),w,b
  2711   002E64  6ED9               	movwf	fsr2l,c
  2712   002E66  0E06               	movlw	high _dbuf
  2713   002E68  2183               	addwfc	(efgtoa@n+1)& (0+255),w,b
  2714   002E6A  6EDA               	movwf	fsr2h,c
  2715   002E6C  516B               	movf	efgtoa@d& (0+255),w,b
  2716   002E6E  0F30               	addlw	48
  2717   002E70  6EDF               	movwf	indf2,c
  2718   002E72                     
  2719                           ; BSR set to: 5
  2720   002E72  4B82               	infsnz	efgtoa@n& (0+255),f,b
  2721   002E74  2B83               	incf	(efgtoa@n+1)& (0+255),f,b
  2722   002E76                     
  2723                           ; BSR set to: 5
  2724                           ;D:\XC8\pic\sources\c99\common\doprnt.c: 723:             --w;
  2725   002E76  0771               	decf	efgtoa@w& (0+255),f,b
  2726   002E78  A0D8               	btfss	status,0,c
  2727   002E7A  0772               	decf	(efgtoa@w+1)& (0+255),f,b
  2728   002E7C                     
  2729                           ; BSR set to: 5
  2730                           ;D:\XC8\pic\sources\c99\common\doprnt.c: 724:         };D:\XC8\pic\sources\c99\common\do
      +                          prnt.c: 725:         h -= l*u.f;
  2731   002E7C  C579  F528         	movff	efgtoa@h,___flsub@b
  2732   002E80  C57A  F529         	movff	efgtoa@h+1,___flsub@b+1
  2733   002E84  C57B  F52A         	movff	efgtoa@h+2,___flsub@b+2
  2734   002E88  C57C  F52B         	movff	efgtoa@h+3,___flsub@b+3
  2735   002E8C  C57D  F513         	movff	efgtoa@l,___flmul@a
  2736   002E90  C57E  F514         	movff	efgtoa@l+1,___flmul@a+1
  2737   002E94  C57F  F515         	movff	efgtoa@l+2,___flmul@a+2
  2738   002E98  C580  F516         	movff	efgtoa@l+3,___flmul@a+3
  2739   002E9C  C588  F50F         	movff	efgtoa@u,___flmul@b
  2740   002EA0  C589  F510         	movff	efgtoa@u+1,___flmul@b+1
  2741   002EA4  C58A  F511         	movff	efgtoa@u+2,___flmul@b+2
  2742   002EA8  C58B  F512         	movff	efgtoa@u+3,___flmul@b+3
  2743   002EAC  EC66  F01A         	call	___flmul	;wreg free
  2744   002EB0  C50F  F52C         	movff	?___flmul,___flsub@a
  2745   002EB4  C510  F52D         	movff	?___flmul+1,___flsub@a+1
  2746   002EB8  C511  F52E         	movff	?___flmul+2,___flsub@a+2
  2747   002EBC  C512  F52F         	movff	?___flmul+3,___flsub@a+3
  2748   002EC0  EC0B  F025         	call	___flsub	;wreg free
  2749   002EC4  C528  F579         	movff	?___flsub,efgtoa@h
  2750   002EC8  C529  F57A         	movff	?___flsub+1,efgtoa@h+1
  2751   002ECC  C52A  F57B         	movff	?___flsub+2,efgtoa@h+2
  2752   002ED0  C52B  F57C         	movff	?___flsub+3,efgtoa@h+3
  2753   002ED4                     
  2754                           ;D:\XC8\pic\sources\c99\common\doprnt.c: 726:         u.f = u.f/10.0;
  2755   002ED4  C588  F501         	movff	efgtoa@u,___fldiv@b
  2756   002ED8  C589  F502         	movff	efgtoa@u+1,___fldiv@b+1
  2757   002EDC  C58A  F503         	movff	efgtoa@u+2,___fldiv@b+2
  2758   002EE0  C58B  F504         	movff	efgtoa@u+3,___fldiv@b+3
  2759   002EE4  0E00               	movlw	0
  2760   002EE6  6E05               	movwf	___fldiv@a^(0+1280),c
  2761   002EE8  0E00               	movlw	0
  2762   002EEA  6E06               	movwf	(___fldiv@a+1)^(0+1280),c
  2763   002EEC  0E20               	movlw	32
  2764   002EEE  6E07               	movwf	(___fldiv@a+2)^(0+1280),c
  2765   002EF0  0E41               	movlw	65
  2766   002EF2  6E08               	movwf	(___fldiv@a+3)^(0+1280),c
  2767   002EF4  EC7B  F01C         	call	___fldiv	;wreg free
  2768   002EF8  C501  F588         	movff	?___fldiv,efgtoa@u
  2769   002EFC  C502  F589         	movff	?___fldiv+1,efgtoa@u+1
  2770   002F00  C503  F58A         	movff	?___fldiv+2,efgtoa@u+2
  2771   002F04  C504  F58B         	movff	?___fldiv+3,efgtoa@u+3
  2772   002F08                     
  2773                           ;D:\XC8\pic\sources\c99\common\doprnt.c: 727:         --ne;
  2774   002F08  0105               	movlb	5	; () banked
  2775   002F0A  0760               	decf	efgtoa@ne& (0+255),f,b
  2776   002F0C  A0D8               	btfss	status,0,c
  2777   002F0E  0761               	decf	(efgtoa@ne+1)& (0+255),f,b
  2778   002F10                     
  2779                           ; BSR set to: 5
  2780                           ;D:\XC8\pic\sources\c99\common\doprnt.c: 728:         ++i;
  2781   002F10  4B77               	infsnz	efgtoa@i& (0+255),f,b
  2782   002F12  2B78               	incf	(efgtoa@i+1)& (0+255),f,b
  2783   002F14                     i2l3149:
  2784                           
  2785                           ; BSR set to: 5
  2786                           ;D:\XC8\pic\sources\c99\common\doprnt.c: 698:     while ((i < m) && (n < (80 - 5))) {
  2787   002F14  516D               	movf	efgtoa@m& (0+255),w,b
  2788   002F16  5D77               	subwf	efgtoa@i& (0+255),w,b
  2789   002F18  5178               	movf	(efgtoa@i+1)& (0+255),w,b
  2790   002F1A  0A80               	xorlw	128
  2791   002F1C  6E3B               	movwf	??_efgtoa^(0+1280),c
  2792   002F1E  516E               	movf	(efgtoa@m+1)& (0+255),w,b
  2793   002F20  0A80               	xorlw	128
  2794   002F22  583B               	subwfb	??_efgtoa^(0+1280),w,c
  2795   002F24  B0D8               	btfsc	status,0,c
  2796   002F26  EF97  F017         	goto	i2u322_41
  2797   002F2A  EF99  F017         	goto	i2u322_40
  2798   002F2E                     i2u322_41:
  2799   002F2E  EFA7  F017         	goto	i2l3153
  2800   002F32                     i2u322_40:
  2801   002F32                     
  2802                           ; BSR set to: 5
  2803   002F32  BF83               	btfsc	(efgtoa@n+1)& (0+255),7,b
  2804   002F34  EFA5  F017         	goto	i2u323_41
  2805   002F38  5183               	movf	(efgtoa@n+1)& (0+255),w,b
  2806   002F3A  E109               	bnz	i2u323_40
  2807   002F3C  0E4B               	movlw	75
  2808   002F3E  5D82               	subwf	efgtoa@n& (0+255),w,b
  2809   002F40  A0D8               	btfss	status,0,c
  2810   002F42  EFA5  F017         	goto	i2u323_41
  2811   002F46  EFA7  F017         	goto	i2u323_40
  2812   002F4A                     i2u323_41:
  2813   002F4A  EFA5  F016         	goto	i2l3109
  2814   002F4E                     i2u323_40:
  2815   002F4E                     i2l3153:
  2816                           
  2817                           ; BSR set to: 5
  2818                           ;D:\XC8\pic\sources\c99\common\doprnt.c: 735:  i = sizeof(dbuf) - 1;
  2819   002F4E  0E00               	movlw	0
  2820   002F50  6F78               	movwf	(efgtoa@i+1)& (0+255),b
  2821   002F52  0E4F               	movlw	79
  2822   002F54  6F77               	movwf	efgtoa@i& (0+255),b
  2823   002F56                     
  2824                           ; BSR set to: 5
  2825                           ;D:\XC8\pic\sources\c99\common\doprnt.c: 736:     dbuf[i] = '\0';
  2826   002F56  0E00               	movlw	low _dbuf
  2827   002F58  2577               	addwf	efgtoa@i& (0+255),w,b
  2828   002F5A  6ED9               	movwf	fsr2l,c
  2829   002F5C  0E06               	movlw	high _dbuf
  2830   002F5E  2178               	addwfc	(efgtoa@i+1)& (0+255),w,b
  2831   002F60  6EDA               	movwf	fsr2h,c
  2832   002F62  0E00               	movlw	0
  2833   002F64  6EDF               	movwf	indf2,c
  2834   002F66                     
  2835                           ; BSR set to: 5
  2836                           ;D:\XC8\pic\sources\c99\common\doprnt.c: 767:  memcpy(&dbuf[i-n], &dbuf[0], (size_t)n);
  2837   002F66  0E00               	movlw	low _dbuf
  2838   002F68  6E3B               	movwf	??_efgtoa^(0+1280),c
  2839   002F6A  0E06               	movlw	high _dbuf
  2840   002F6C  6E3C               	movwf	(??_efgtoa+1)^(0+1280),c
  2841   002F6E  5182               	movf	efgtoa@n& (0+255),w,b
  2842   002F70  5E3B               	subwf	??_efgtoa^(0+1280),f,c
  2843   002F72  5183               	movf	(efgtoa@n+1)& (0+255),w,b
  2844   002F74  5A3C               	subwfb	(??_efgtoa+1)^(0+1280),f,c
  2845   002F76  5177               	movf	efgtoa@i& (0+255),w,b
  2846   002F78  243B               	addwf	??_efgtoa^(0+1280),w,c
  2847   002F7A  6E01               	movwf	memcpy@d1^(0+1280),c
  2848   002F7C  5178               	movf	(efgtoa@i+1)& (0+255),w,b
  2849   002F7E  203C               	addwfc	(??_efgtoa+1)^(0+1280),w,c
  2850   002F80  6E02               	movwf	(memcpy@d1+1)^(0+1280),c
  2851   002F82  0E00               	movlw	low _dbuf
  2852   002F84  6E03               	movwf	memcpy@s1^(0+1280),c
  2853   002F86  0E06               	movlw	high _dbuf
  2854   002F88  6E04               	movwf	(memcpy@s1+1)^(0+1280),c
  2855   002F8A  C582  F505         	movff	efgtoa@n,memcpy@n
  2856   002F8E  C583  F506         	movff	efgtoa@n+1,memcpy@n+1
  2857   002F92  ECBD  F024         	call	_memcpy	;wreg free
  2858   002F96                     
  2859                           ;D:\XC8\pic\sources\c99\common\doprnt.c: 768:  n = i-n;
  2860   002F96  0105               	movlb	5	; () banked
  2861   002F98  5182               	movf	efgtoa@n& (0+255),w,b
  2862   002F9A  5D77               	subwf	efgtoa@i& (0+255),w,b
  2863   002F9C  6F82               	movwf	efgtoa@n& (0+255),b
  2864   002F9E  5183               	movf	(efgtoa@n+1)& (0+255),w,b
  2865   002FA0  5978               	subwfb	(efgtoa@i+1)& (0+255),w,b
  2866   002FA2  6F83               	movwf	(efgtoa@n+1)& (0+255),b
  2867   002FA4                     
  2868                           ; BSR set to: 5
  2869                           ;D:\XC8\pic\sources\c99\common\doprnt.c: 769:  i = sign == 0 ? 0 : 1;
  2870   002FA4  5181               	movf	efgtoa@sign& (0+255),w,b
  2871   002FA6  A4D8               	btfss	status,2,c
  2872   002FA8  EFD8  F017         	goto	i2u324_41
  2873   002FAC  EFDB  F017         	goto	i2u324_40
  2874   002FB0                     i2u324_41:
  2875   002FB0  0E01               	movlw	1
  2876   002FB2  EFDC  F017         	goto	i2u325_40
  2877   002FB6                     i2u324_40:
  2878   002FB6  0E00               	movlw	0
  2879   002FB8                     i2u325_40:
  2880   002FB8  6F77               	movwf	efgtoa@i& (0+255),b
  2881   002FBA  6B78               	clrf	(efgtoa@i+1)& (0+255),b
  2882   002FBC                     
  2883                           ; BSR set to: 5
  2884                           ;D:\XC8\pic\sources\c99\common\doprnt.c: 780:  if (sign) {
  2885   002FBC  5181               	movf	efgtoa@sign& (0+255),w,b
  2886   002FBE  B4D8               	btfsc	status,2,c
  2887   002FC0  EFE4  F017         	goto	i2u326_41
  2888   002FC4  EFE6  F017         	goto	i2u326_40
  2889   002FC8                     i2u326_41:
  2890   002FC8  EFF1  F017         	goto	i2l3167
  2891   002FCC                     i2u326_40:
  2892   002FCC                     
  2893                           ; BSR set to: 5
  2894                           ;D:\XC8\pic\sources\c99\common\doprnt.c: 781:   dbuf[--n] = sign;
  2895   002FCC  0782               	decf	efgtoa@n& (0+255),f,b
  2896   002FCE  A0D8               	btfss	status,0,c
  2897   002FD0  0783               	decf	(efgtoa@n+1)& (0+255),f,b
  2898   002FD2  0E00               	movlw	low _dbuf
  2899   002FD4  2582               	addwf	efgtoa@n& (0+255),w,b
  2900   002FD6  6ED9               	movwf	fsr2l,c
  2901   002FD8  0E06               	movlw	high _dbuf
  2902   002FDA  2183               	addwfc	(efgtoa@n+1)& (0+255),w,b
  2903   002FDC  6EDA               	movwf	fsr2h,c
  2904   002FDE  C581  F4DF         	movff	efgtoa@sign,indf2
  2905   002FE2                     i2l3167:
  2906                           
  2907                           ; BSR set to: 5
  2908                           ;D:\XC8\pic\sources\c99\common\doprnt.c: 783:  w -= i;
  2909   002FE2  5177               	movf	efgtoa@i& (0+255),w,b
  2910   002FE4  5F71               	subwf	efgtoa@w& (0+255),f,b
  2911   002FE6  5178               	movf	(efgtoa@i+1)& (0+255),w,b
  2912   002FE8  5B72               	subwfb	(efgtoa@w+1)& (0+255),f,b
  2913   002FEA                     
  2914                           ; BSR set to: 5
  2915                           ;D:\XC8\pic\sources\c99\common\doprnt.c: 786:     return (void) pad(fp, &dbuf[n], w);
  2916   002FEA  C534  F511         	movff	efgtoa@fp,pad@fp
  2917   002FEE  C535  F512         	movff	efgtoa@fp+1,pad@fp+1
  2918   002FF2  0E00               	movlw	low _dbuf
  2919   002FF4  2582               	addwf	efgtoa@n& (0+255),w,b
  2920   002FF6  6E13               	movwf	pad@buf^(0+1280),c
  2921   002FF8  0E06               	movlw	high _dbuf
  2922   002FFA  2183               	addwfc	(efgtoa@n+1)& (0+255),w,b
  2923   002FFC  6E14               	movwf	(pad@buf+1)^(0+1280),c
  2924   002FFE  C571  F515         	movff	efgtoa@w,pad@p
  2925   003002  C572  F516         	movff	efgtoa@w+1,pad@p+1
  2926   003006  ECF9  F023         	call	_pad	;wreg free
  2927   00300A                     i2l920:
  2928   00300A  0012               	return		;funcret
  2929   00300C                     __end_of_efgtoa:
  2930                           	callstack 0
  2931                           
  2932 ;; *************** function _strcpy *****************
  2933 ;; Defined at:
  2934 ;;		line 3 in file "D:\XC8\pic\sources\c99\common\strcpy.c"
  2935 ;; Parameters:    Size  Location     Type
  2936 ;;  dest            2    0[COMRAM] PTR unsigned char 
  2937 ;;		 -> dbuf(80), 
  2938 ;;  src             2    2[COMRAM] PTR const unsigned char 
  2939 ;;		 -> STR_5(4), STR_2(4), 
  2940 ;; Auto vars:     Size  Location     Type
  2941 ;;  d               2    6[COMRAM] PTR unsigned char 
  2942 ;;		 -> dbuf(80), 
  2943 ;;  s               2    4[COMRAM] PTR const unsigned char 
  2944 ;;		 -> STR_5(4), STR_2(4), 
  2945 ;; Return value:  Size  Location     Type
  2946 ;;                  2    0[COMRAM] PTR unsigned char 
  2947 ;; Registers used:
  2948 ;;		wreg, fsr2l, fsr2h, status,2, status,0, tblptrl, tblptrh, tblptru
  2949 ;; Tracked objects:
  2950 ;;		On entry : 0/0
  2951 ;;		On exit  : 0/0
  2952 ;;		Unchanged: 0/0
  2953 ;; Data sizes:     COMRAM   BANK5   BANK6   BANK7   BANK8   BANK9  BANK10  BANK11  BANK12  BANK13  BANK14  BANK15  BANK1
      +6  BANK17  BANK18  BANK19  BANK20  BANK21  BANK22  BANK23  BANK24  BANK25  BANK26  BANK27  BANK28  BANK29  BANK30  BANK3
      +1  BANK32  BANK33  BANK34  BANK35  BANK36
  2954 ;;      Params:         4       0       0       0       0       0       0       0       0       0       0       0       
      +0       0       0       0       0       0       0       0       0       0       0       0       0       0       0       
      +0       0       0       0       0       0
  2955 ;;      Locals:         4       0       0       0       0       0       0       0       0       0       0       0       
      +0       0       0       0       0       0       0       0       0       0       0       0       0       0       0       
      +0       0       0       0       0       0
  2956 ;;      Temps:          0       0       0       0       0       0       0       0       0       0       0       0       
      +0       0       0       0       0       0       0       0       0       0       0       0       0       0       0       
      +0       0       0       0       0       0
  2957 ;;      Totals:         8       0       0       0       0       0       0       0       0       0       0       0       
      +0       0       0       0       0       0       0       0       0       0       0       0       0       0       0       
      +0       0       0       0       0       0
  2958 ;;Total ram usage:        8 bytes
  2959 ;; Hardware stack levels used: 1
  2960 ;; This function calls:
  2961 ;;		Nothing
  2962 ;; This function is called by:
  2963 ;;		_efgtoa
  2964 ;; This function uses a non-reentrant model
  2965 ;;
  2966                           
  2967                           	psect	text6
  2968   004A5C                     __ptext6:
  2969                           	callstack 0
  2970   004A5C                     _strcpy:
  2971                           	callstack 121
  2972   004A5C  C503  F505         	movff	strcpy@src,strcpy@s
  2973   004A60  C504  F506         	movff	strcpy@src+1,strcpy@s+1
  2974   004A64  C501  F507         	movff	strcpy@dest,strcpy@d
  2975   004A68  C502  F508         	movff	strcpy@dest+1,strcpy@d+1
  2976   004A6C                     i2l2905:
  2977   004A6C  C505  F4F6         	movff	strcpy@s,tblptrl
  2978   004A70  C506  F4F7         	movff	strcpy@s+1,tblptrh
  2979   004A74  4A05               	infsnz	strcpy@s^(0+1280),f,c
  2980   004A76  2A06               	incf	(strcpy@s+1)^(0+1280),f,c
  2981   004A78                     	if	0	;tblptru may be non-zero
  2982   004A78                     	endif
  2983   004A78                     	if	1	;Program memory is > 0xFFFF, there are 3 active tblptr bytes
  2984   004A78  0E00               	movlw	low (__mediumconst shr (0+16))
  2985   004A7A  6EF8               	movwf	tblptru,c
  2986   004A7C                     	endif
  2987   004A7C  C507  F4D9         	movff	strcpy@d,fsr2l
  2988   004A80  C508  F4DA         	movff	strcpy@d+1,fsr2h
  2989   004A84  4A07               	infsnz	strcpy@d^(0+1280),f,c
  2990   004A86  2A08               	incf	(strcpy@d+1)^(0+1280),f,c
  2991   004A88  0008               	tblrd		*
  2992   004A8A  C4F5 F4DF          	movff	tablat,indf2
  2993   004A8E  50DF               	movf	indf2,w,c
  2994   004A90  A4D8               	btfss	status,2,c
  2995   004A92  EF4D  F025         	goto	i2u282_41
  2996   004A96  EF4F  F025         	goto	i2u282_40
  2997   004A9A                     i2u282_41:
  2998   004A9A  EF36  F025         	goto	i2l2905
  2999   004A9E                     i2u282_40:
  3000   004A9E  0012               	return		;funcret
  3001   004AA0                     __end_of_strcpy:
  3002                           	callstack 0
  3003                           
  3004 ;; *************** function _pad *****************
  3005 ;; Defined at:
  3006 ;;		line 133 in file "D:\XC8\pic\sources\c99\common\doprnt.c"
  3007 ;; Parameters:    Size  Location     Type
  3008 ;;  fp              2   16[COMRAM] PTR struct _IO_FILE
  3009 ;;		 -> sprintf@f(11), 
  3010 ;;  buf             2   18[COMRAM] PTR unsigned char 
  3011 ;;		 -> dbuf(80), 
  3012 ;;  p               2   20[COMRAM] int 
  3013 ;; Auto vars:     Size  Location     Type
  3014 ;;  w               2   25[COMRAM] int 
  3015 ;;  i               2   23[COMRAM] int 
  3016 ;; Return value:  Size  Location     Type
  3017 ;;                  1    wreg      void 
  3018 ;; Registers used:
  3019 ;;		wreg, fsr1l, fsr1h, fsr2l, fsr2h, status,2, status,0, cstack
  3020 ;; Tracked objects:
  3021 ;;		On entry : 0/0
  3022 ;;		On exit  : 0/0
  3023 ;;		Unchanged: 0/0
  3024 ;; Data sizes:     COMRAM   BANK5   BANK6   BANK7   BANK8   BANK9  BANK10  BANK11  BANK12  BANK13  BANK14  BANK15  BANK1
      +6  BANK17  BANK18  BANK19  BANK20  BANK21  BANK22  BANK23  BANK24  BANK25  BANK26  BANK27  BANK28  BANK29  BANK30  BANK3
      +1  BANK32  BANK33  BANK34  BANK35  BANK36
  3025 ;;      Params:         6       0       0       0       0       0       0       0       0       0       0       0       
      +0       0       0       0       0       0       0       0       0       0       0       0       0       0       0       
      +0       0       0       0       0       0
  3026 ;;      Locals:         4       0       0       0       0       0       0       0       0       0       0       0       
      +0       0       0       0       0       0       0       0       0       0       0       0       0       0       0       
      +0       0       0       0       0       0
  3027 ;;      Temps:          1       0       0       0       0       0       0       0       0       0       0       0       
      +0       0       0       0       0       0       0       0       0       0       0       0       0       0       0       
      +0       0       0       0       0       0
  3028 ;;      Totals:        11       0       0       0       0       0       0       0       0       0       0       0       
      +0       0       0       0       0       0       0       0       0       0       0       0       0       0       0       
      +0       0       0       0       0       0
  3029 ;;Total ram usage:       11 bytes
  3030 ;; Hardware stack levels used: 1
  3031 ;; Hardware stack levels required when called: 3
  3032 ;; This function calls:
  3033 ;;		_fputc
  3034 ;;		_fputs
  3035 ;; This function is called by:
  3036 ;;		_efgtoa
  3037 ;; This function uses a non-reentrant model
  3038 ;;
  3039                           
  3040                           	psect	text7
  3041   0047F2                     __ptext7:
  3042                           	callstack 0
  3043   0047F2                     _pad:
  3044                           	callstack 118
  3045   0047F2                     
  3046                           ;D:\XC8\pic\sources\c99\common\doprnt.c: 133: static void pad(FILE *fp, char *buf, int p
      +                          );D:\XC8\pic\sources\c99\common\doprnt.c: 134: {;D:\XC8\pic\sources\c99\common\doprnt.c:
      +                           135:     int i, w;;D:\XC8\pic\sources\c99\common\doprnt.c: 145:     w = (p < 0) ? 0 : p
      +                          ;
  3047   0047F2  BE16               	btfsc	(pad@p+1)^(0+1280),7,c
  3048   0047F4  EFFE  F023         	goto	i2u273_41
  3049   0047F8  EF00  F024         	goto	i2u273_40
  3050   0047FC                     i2u273_41:
  3051   0047FC  EF06  F024         	goto	i2l2871
  3052   004800                     i2u273_40:
  3053   004800  C515  F51A         	movff	pad@p,pad@w
  3054   004804  C516  F51B         	movff	pad@p+1,pad@w+1
  3055   004808  EF0A  F024         	goto	i2l905
  3056   00480C                     i2l2871:
  3057   00480C  0E00               	movlw	0
  3058   00480E  6E1B               	movwf	(pad@w+1)^(0+1280),c
  3059   004810  0E00               	movlw	0
  3060   004812  6E1A               	movwf	pad@w^(0+1280),c
  3061   004814                     i2l905:
  3062                           
  3063                           ;D:\XC8\pic\sources\c99\common\doprnt.c: 146:     i = 0;
  3064   004814  0E00               	movlw	0
  3065   004816  6E19               	movwf	(pad@i+1)^(0+1280),c
  3066   004818  0E00               	movlw	0
  3067   00481A  6E18               	movwf	pad@i^(0+1280),c
  3068                           
  3069                           ;D:\XC8\pic\sources\c99\common\doprnt.c: 147:     while (i < w) {
  3070   00481C  EF1C  F024         	goto	i2l2877
  3071   004820                     i2l2873:
  3072                           
  3073                           ;D:\XC8\pic\sources\c99\common\doprnt.c: 148:         fputc(' ', fp);
  3074   004820  0E00               	movlw	0
  3075   004822  6E02               	movwf	(fputc@c+1)^(0+1280),c
  3076   004824  0E20               	movlw	32
  3077   004826  6E01               	movwf	fputc@c^(0+1280),c
  3078   004828  C511  F503         	movff	pad@fp,fputc@fp
  3079   00482C  C512  F504         	movff	pad@fp+1,fputc@fp+1
  3080   004830  EC3F  F023         	call	_fputc	;wreg free
  3081   004834                     
  3082                           ;D:\XC8\pic\sources\c99\common\doprnt.c: 149:         ++i;
  3083   004834  4A18               	infsnz	pad@i^(0+1280),f,c
  3084   004836  2A19               	incf	(pad@i+1)^(0+1280),f,c
  3085   004838                     i2l2877:
  3086                           
  3087                           ;D:\XC8\pic\sources\c99\common\doprnt.c: 147:     while (i < w) {
  3088   004838  501A               	movf	pad@w^(0+1280),w,c
  3089   00483A  5C18               	subwf	pad@i^(0+1280),w,c
  3090   00483C  5019               	movf	(pad@i+1)^(0+1280),w,c
  3091   00483E  0A80               	xorlw	128
  3092   004840  6E17               	movwf	??_pad^(0+1280),c
  3093   004842  501B               	movf	(pad@w+1)^(0+1280),w,c
  3094   004844  0A80               	xorlw	128
  3095   004846  5817               	subwfb	??_pad^(0+1280),w,c
  3096   004848  A0D8               	btfss	status,0,c
  3097   00484A  EF29  F024         	goto	i2u274_41
  3098   00484E  EF2B  F024         	goto	i2u274_40
  3099   004852                     i2u274_41:
  3100   004852  EF10  F024         	goto	i2l2873
  3101   004856                     i2u274_40:
  3102   004856                     
  3103                           ;D:\XC8\pic\sources\c99\common\doprnt.c: 156:         fputs((const char *)buf, fp);
  3104   004856  C513  F50A         	movff	pad@buf,fputs@s
  3105   00485A  C514  F50B         	movff	pad@buf+1,fputs@s+1
  3106   00485E  C511  F50C         	movff	pad@fp,fputs@fp
  3107   004862  C512  F50D         	movff	pad@fp+1,fputs@fp+1
  3108   004866  EC50  F025         	call	_fputs	;wreg free
  3109   00486A  0012               	return		;funcret
  3110   00486C                     __end_of_pad:
  3111                           	callstack 0
  3112                           
  3113 ;; *************** function _fputs *****************
  3114 ;; Defined at:
  3115 ;;		line 8 in file "D:\XC8\pic\sources\c99\common\nf_fputs.c"
  3116 ;; Parameters:    Size  Location     Type
  3117 ;;  s               2    9[COMRAM] PTR const unsigned char 
  3118 ;;		 -> dbuf(80), 
  3119 ;;  fp              2   11[COMRAM] PTR struct _IO_FILE
  3120 ;;		 -> sprintf@f(11), 
  3121 ;; Auto vars:     Size  Location     Type
  3122 ;;  i               2   14[COMRAM] int 
  3123 ;;  c               1   13[COMRAM] unsigned char 
  3124 ;; Return value:  Size  Location     Type
  3125 ;;                  2    9[COMRAM] int 
  3126 ;; Registers used:
  3127 ;;		wreg, fsr1l, fsr1h, fsr2l, fsr2h, status,2, status,0, cstack
  3128 ;; Tracked objects:
  3129 ;;		On entry : 0/0
  3130 ;;		On exit  : 0/0
  3131 ;;		Unchanged: 0/0
  3132 ;; Data sizes:     COMRAM   BANK5   BANK6   BANK7   BANK8   BANK9  BANK10  BANK11  BANK12  BANK13  BANK14  BANK15  BANK1
      +6  BANK17  BANK18  BANK19  BANK20  BANK21  BANK22  BANK23  BANK24  BANK25  BANK26  BANK27  BANK28  BANK29  BANK30  BANK3
      +1  BANK32  BANK33  BANK34  BANK35  BANK36
  3133 ;;      Params:         4       0       0       0       0       0       0       0       0       0       0       0       
      +0       0       0       0       0       0       0       0       0       0       0       0       0       0       0       
      +0       0       0       0       0       0
  3134 ;;      Locals:         3       0       0       0       0       0       0       0       0       0       0       0       
      +0       0       0       0       0       0       0       0       0       0       0       0       0       0       0       
      +0       0       0       0       0       0
  3135 ;;      Temps:          0       0       0       0       0       0       0       0       0       0       0       0       
      +0       0       0       0       0       0       0       0       0       0       0       0       0       0       0       
      +0       0       0       0       0       0
  3136 ;;      Totals:         7       0       0       0       0       0       0       0       0       0       0       0       
      +0       0       0       0       0       0       0       0       0       0       0       0       0       0       0       
      +0       0       0       0       0       0
  3137 ;;Total ram usage:        7 bytes
  3138 ;; Hardware stack levels used: 1
  3139 ;; Hardware stack levels required when called: 2
  3140 ;; This function calls:
  3141 ;;		_fputc
  3142 ;; This function is called by:
  3143 ;;		_pad
  3144 ;; This function uses a non-reentrant model
  3145 ;;
  3146                           
  3147                           	psect	text8
  3148   004AA0                     __ptext8:
  3149                           	callstack 0
  3150   004AA0                     _fputs:
  3151                           	callstack 118
  3152   004AA0  0E00               	movlw	0
  3153   004AA2  6E10               	movwf	(fputs@i+1)^(0+1280),c
  3154   004AA4  0E00               	movlw	0
  3155   004AA6  6E0F               	movwf	fputs@i^(0+1280),c
  3156   004AA8  EF61  F025         	goto	i2l2501
  3157   004AAC                     i2l2497:
  3158   004AAC  C50E  F501         	movff	fputs@c,fputc@c
  3159   004AB0  6A02               	clrf	(fputc@c+1)^(0+1280),c
  3160   004AB2  C50C  F503         	movff	fputs@fp,fputc@fp
  3161   004AB6  C50D  F504         	movff	fputs@fp+1,fputc@fp+1
  3162   004ABA  EC3F  F023         	call	_fputc	;wreg free
  3163   004ABE  4A0F               	infsnz	fputs@i^(0+1280),f,c
  3164   004AC0  2A10               	incf	(fputs@i+1)^(0+1280),f,c
  3165   004AC2                     i2l2501:
  3166   004AC2  500F               	movf	fputs@i^(0+1280),w,c
  3167   004AC4  240A               	addwf	fputs@s^(0+1280),w,c
  3168   004AC6  6ED9               	movwf	fsr2l,c
  3169   004AC8  5010               	movf	(fputs@i+1)^(0+1280),w,c
  3170   004ACA  200B               	addwfc	(fputs@s+1)^(0+1280),w,c
  3171   004ACC  6EDA               	movwf	fsr2h,c
  3172   004ACE  50DF               	movf	indf2,w,c
  3173   004AD0  6E0E               	movwf	fputs@c^(0+1280),c
  3174   004AD2  500E               	movf	fputs@c^(0+1280),w,c
  3175   004AD4  A4D8               	btfss	status,2,c
  3176   004AD6  EF6F  F025         	goto	i2u214_41
  3177   004ADA  EF71  F025         	goto	i2u214_40
  3178   004ADE                     i2u214_41:
  3179   004ADE  EF56  F025         	goto	i2l2497
  3180   004AE2                     i2u214_40:
  3181   004AE2  0012               	return		;funcret
  3182   004AE4                     __end_of_fputs:
  3183                           	callstack 0
  3184                           
  3185 ;; *************** function _fputc *****************
  3186 ;; Defined at:
  3187 ;;		line 8 in file "D:\XC8\pic\sources\c99\common\nf_fputc.c"
  3188 ;; Parameters:    Size  Location     Type
  3189 ;;  c               2    0[COMRAM] int 
  3190 ;;  fp              2    2[COMRAM] PTR struct _IO_FILE
  3191 ;;		 -> sprintf@f(11), 
  3192 ;; Auto vars:     Size  Location     Type
  3193 ;;		None
  3194 ;; Return value:  Size  Location     Type
  3195 ;;                  2    0[COMRAM] int 
  3196 ;; Registers used:
  3197 ;;		wreg, fsr1l, fsr1h, fsr2l, fsr2h, status,2, status,0, cstack
  3198 ;; Tracked objects:
  3199 ;;		On entry : 0/0
  3200 ;;		On exit  : 0/0
  3201 ;;		Unchanged: 0/0
  3202 ;; Data sizes:     COMRAM   BANK5   BANK6   BANK7   BANK8   BANK9  BANK10  BANK11  BANK12  BANK13  BANK14  BANK15  BANK1
      +6  BANK17  BANK18  BANK19  BANK20  BANK21  BANK22  BANK23  BANK24  BANK25  BANK26  BANK27  BANK28  BANK29  BANK30  BANK3
      +1  BANK32  BANK33  BANK34  BANK35  BANK36
  3203 ;;      Params:         4       0       0       0       0       0       0       0       0       0       0       0       
      +0       0       0       0       0       0       0       0       0       0       0       0       0       0       0       
      +0       0       0       0       0       0
  3204 ;;      Locals:         0       0       0       0       0       0       0       0       0       0       0       0       
      +0       0       0       0       0       0       0       0       0       0       0       0       0       0       0       
      +0       0       0       0       0       0
  3205 ;;      Temps:          5       0       0       0       0       0       0       0       0       0       0       0       
      +0       0       0       0       0       0       0       0       0       0       0       0       0       0       0       
      +0       0       0       0       0       0
  3206 ;;      Totals:         9       0       0       0       0       0       0       0       0       0       0       0       
      +0       0       0       0       0       0       0       0       0       0       0       0       0       0       0       
      +0       0       0       0       0       0
  3207 ;;Total ram usage:        9 bytes
  3208 ;; Hardware stack levels used: 1
  3209 ;; Hardware stack levels required when called: 1
  3210 ;; This function calls:
  3211 ;;		_putch
  3212 ;; This function is called by:
  3213 ;;		_pad
  3214 ;;		_vfpfcnvrt
  3215 ;;		_fputs
  3216 ;; This function uses a non-reentrant model
  3217 ;;
  3218                           
  3219                           	psect	text9
  3220   00467E                     __ptext9:
  3221                           	callstack 0
  3222   00467E                     _fputc:
  3223                           	callstack 121
  3224   00467E  5003               	movf	fputc@fp^(0+1280),w,c
  3225   004680  1004               	iorwf	(fputc@fp+1)^(0+1280),w,c
  3226   004682  B4D8               	btfsc	status,2,c
  3227   004684  EF46  F023         	goto	i2u171_41
  3228   004688  EF48  F023         	goto	i2u171_40
  3229   00468C                     i2u171_41:
  3230   00468C  EF51  F023         	goto	i2l2283
  3231   004690                     i2u171_40:
  3232   004690  5003               	movf	fputc@fp^(0+1280),w,c
  3233   004692  1004               	iorwf	(fputc@fp+1)^(0+1280),w,c
  3234   004694  A4D8               	btfss	status,2,c
  3235   004696  EF4F  F023         	goto	i2u172_41
  3236   00469A  EF51  F023         	goto	i2u172_40
  3237   00469E                     i2u172_41:
  3238   00469E  EF56  F023         	goto	i2l2285
  3239   0046A2                     i2u172_40:
  3240   0046A2                     i2l2283:
  3241   0046A2  5001               	movf	fputc@c^(0+1280),w,c
  3242   0046A4  ECA6  F025         	call	_putch
  3243   0046A8  EFA3  F023         	goto	i2l1036
  3244   0046AC                     i2l2285:
  3245   0046AC  EE20 F009          	lfsr	2,9
  3246   0046B0  5003               	movf	fputc@fp^(0+1280),w,c
  3247   0046B2  26D9               	addwf	fsr2l,f,c
  3248   0046B4  5004               	movf	(fputc@fp+1)^(0+1280),w,c
  3249   0046B6  22DA               	addwfc	fsr2h,f,c
  3250   0046B8  50DE               	movf	postinc2,w,c
  3251   0046BA  10DE               	iorwf	postinc2,w,c
  3252   0046BC  B4D8               	btfsc	status,2,c
  3253   0046BE  EF63  F023         	goto	i2u173_41
  3254   0046C2  EF65  F023         	goto	i2u173_40
  3255   0046C6                     i2u173_41:
  3256   0046C6  EF80  F023         	goto	i2l2289
  3257   0046CA                     i2u173_40:
  3258   0046CA  EE20 F009          	lfsr	2,9
  3259   0046CE  5003               	movf	fputc@fp^(0+1280),w,c
  3260   0046D0  26D9               	addwf	fsr2l,f,c
  3261   0046D2  5004               	movf	(fputc@fp+1)^(0+1280),w,c
  3262   0046D4  22DA               	addwfc	fsr2h,f,c
  3263   0046D6  EE10 F003          	lfsr	1,3
  3264   0046DA  5003               	movf	fputc@fp^(0+1280),w,c
  3265   0046DC  26E1               	addwf	fsr1l,f,c
  3266   0046DE  5004               	movf	(fputc@fp+1)^(0+1280),w,c
  3267   0046E0  22E2               	addwfc	fsr1h,f,c
  3268   0046E2  50DE               	movf	postinc2,w,c
  3269   0046E4  5CE6               	subwf	postinc1,w,c
  3270   0046E6  50E6               	movf	postinc1,w,c
  3271   0046E8  0A80               	xorlw	128
  3272   0046EA  6E09               	movwf	(??_fputc+4)^(0+1280),c
  3273   0046EC  50DE               	movf	postinc2,w,c
  3274   0046EE  0A80               	xorlw	128
  3275   0046F0  5809               	subwfb	(??_fputc+4)^(0+1280),w,c
  3276   0046F2  B0D8               	btfsc	status,0,c
  3277   0046F4  EF7E  F023         	goto	i2u174_41
  3278   0046F8  EF80  F023         	goto	i2u174_40
  3279   0046FC                     i2u174_41:
  3280   0046FC  EFA3  F023         	goto	i2l1036
  3281   004700                     i2u174_40:
  3282   004700                     i2l2289:
  3283   004700  EE20 F003          	lfsr	2,3
  3284   004704  5003               	movf	fputc@fp^(0+1280),w,c
  3285   004706  26D9               	addwf	fsr2l,f,c
  3286   004708  5004               	movf	(fputc@fp+1)^(0+1280),w,c
  3287   00470A  22DA               	addwfc	fsr2h,f,c
  3288   00470C  C4DE F505          	movff	postinc2,??_fputc
  3289   004710  C4DD F506          	movff	postdec2,??_fputc+1
  3290   004714  C503  F4D9         	movff	fputc@fp,fsr2l
  3291   004718  C504  F4DA         	movff	fputc@fp+1,fsr2h
  3292   00471C  C4DE F507          	movff	postinc2,??_fputc+2
  3293   004720  C4DD F508          	movff	postdec2,??_fputc+3
  3294   004724  5005               	movf	??_fputc^(0+1280),w,c
  3295   004726  2407               	addwf	(??_fputc+2)^(0+1280),w,c
  3296   004728  6ED9               	movwf	fsr2l,c
  3297   00472A  5006               	movf	(??_fputc+1)^(0+1280),w,c
  3298   00472C  2008               	addwfc	(??_fputc+3)^(0+1280),w,c
  3299   00472E  6EDA               	movwf	fsr2h,c
  3300   004730  C501  F4DF         	movff	fputc@c,indf2
  3301   004734  EE20 F003          	lfsr	2,3
  3302   004738  5003               	movf	fputc@fp^(0+1280),w,c
  3303   00473A  26D9               	addwf	fsr2l,f,c
  3304   00473C  5004               	movf	(fputc@fp+1)^(0+1280),w,c
  3305   00473E  22DA               	addwfc	fsr2h,f,c
  3306   004740  2ADE               	incf	postinc2,f,c
  3307   004742  0E00               	movlw	0
  3308   004744  22DD               	addwfc	postdec2,f,c
  3309   004746                     i2l1036:
  3310   004746  0012               	return		;funcret
  3311   004748                     __end_of_fputc:
  3312                           	callstack 0
  3313                           
  3314 ;; *************** function _putch *****************
  3315 ;; Defined at:
  3316 ;;		line 7 in file "D:\XC8\pic\sources\c99\common\putch.c"
  3317 ;; Parameters:    Size  Location     Type
  3318 ;;  c               1    wreg     unsigned char 
  3319 ;; Auto vars:     Size  Location     Type
  3320 ;;  c               1    0[COMRAM] unsigned char 
  3321 ;; Return value:  Size  Location     Type
  3322 ;;                  1    wreg      void 
  3323 ;; Registers used:
  3324 ;;		wreg
  3325 ;; Tracked objects:
  3326 ;;		On entry : 0/0
  3327 ;;		On exit  : 0/0
  3328 ;;		Unchanged: 0/0
  3329 ;; Data sizes:     COMRAM   BANK5   BANK6   BANK7   BANK8   BANK9  BANK10  BANK11  BANK12  BANK13  BANK14  BANK15  BANK1
      +6  BANK17  BANK18  BANK19  BANK20  BANK21  BANK22  BANK23  BANK24  BANK25  BANK26  BANK27  BANK28  BANK29  BANK30  BANK3
      +1  BANK32  BANK33  BANK34  BANK35  BANK36
  3330 ;;      Params:         0       0       0       0       0       0       0       0       0       0       0       0       
      +0       0       0       0       0       0       0       0       0       0       0       0       0       0       0       
      +0       0       0       0       0       0
  3331 ;;      Locals:         0       0       0       0       0       0       0       0       0       0       0       0       
      +0       0       0       0       0       0       0       0       0       0       0       0       0       0       0       
      +0       0       0       0       0       0
  3332 ;;      Temps:          0       0       0       0       0       0       0       0       0       0       0       0       
      +0       0       0       0       0       0       0       0       0       0       0       0       0       0       0       
      +0       0       0       0       0       0
  3333 ;;      Totals:         0       0       0       0       0       0       0       0       0       0       0       0       
      +0       0       0       0       0       0       0       0       0       0       0       0       0       0       0       
      +0       0       0       0       0       0
  3334 ;;Total ram usage:        0 bytes
  3335 ;; Hardware stack levels used: 1
  3336 ;; This function calls:
  3337 ;;		Nothing
  3338 ;; This function is called by:
  3339 ;;		_fputc
  3340 ;; This function uses a non-reentrant model
  3341 ;;
  3342                           
  3343                           	psect	text10
  3344   004B4C                     __ptext10:
  3345                           	callstack 0
  3346   004B4C                     _putch:
  3347                           	callstack 121
  3348   004B4C  0012               	return		;funcret
  3349   004B4E                     __end_of_putch:
  3350                           	callstack 0
  3351                           
  3352 ;; *************** function _memcpy *****************
  3353 ;; Defined at:
  3354 ;;		line 4 in file "D:\XC8\pic\sources\c99\common\memcpy.c"
  3355 ;; Parameters:    Size  Location     Type
  3356 ;;  d1              2    0[COMRAM] PTR void 
  3357 ;;		 -> dbuf(80), 
  3358 ;;  s1              2    2[COMRAM] PTR const void 
  3359 ;;		 -> dbuf(80), 
  3360 ;;  n               2    4[COMRAM] unsigned int 
  3361 ;; Auto vars:     Size  Location     Type
  3362 ;;  s               2    8[COMRAM] PTR const unsigned char 
  3363 ;;		 -> dbuf(80), 
  3364 ;;  d               2    6[COMRAM] PTR unsigned char 
  3365 ;;		 -> dbuf(80), 
  3366 ;;  tmp             1   10[COMRAM] unsigned char 
  3367 ;; Return value:  Size  Location     Type
  3368 ;;                  2    0[COMRAM] PTR void 
  3369 ;; Registers used:
  3370 ;;		wreg, fsr2l, fsr2h, status,2, status,0
  3371 ;; Tracked objects:
  3372 ;;		On entry : 0/0
  3373 ;;		On exit  : 0/0
  3374 ;;		Unchanged: 0/0
  3375 ;; Data sizes:     COMRAM   BANK5   BANK6   BANK7   BANK8   BANK9  BANK10  BANK11  BANK12  BANK13  BANK14  BANK15  BANK1
      +6  BANK17  BANK18  BANK19  BANK20  BANK21  BANK22  BANK23  BANK24  BANK25  BANK26  BANK27  BANK28  BANK29  BANK30  BANK3
      +1  BANK32  BANK33  BANK34  BANK35  BANK36
  3376 ;;      Params:         6       0       0       0       0       0       0       0       0       0       0       0       
      +0       0       0       0       0       0       0       0       0       0       0       0       0       0       0       
      +0       0       0       0       0       0
  3377 ;;      Locals:         5       0       0       0       0       0       0       0       0       0       0       0       
      +0       0       0       0       0       0       0       0       0       0       0       0       0       0       0       
      +0       0       0       0       0       0
  3378 ;;      Temps:          0       0       0       0       0       0       0       0       0       0       0       0       
      +0       0       0       0       0       0       0       0       0       0       0       0       0       0       0       
      +0       0       0       0       0       0
  3379 ;;      Totals:        11       0       0       0       0       0       0       0       0       0       0       0       
      +0       0       0       0       0       0       0       0       0       0       0       0       0       0       0       
      +0       0       0       0       0       0
  3380 ;;Total ram usage:       11 bytes
  3381 ;; Hardware stack levels used: 1
  3382 ;; This function calls:
  3383 ;;		Nothing
  3384 ;; This function is called by:
  3385 ;;		_efgtoa
  3386 ;; This function uses a non-reentrant model
  3387 ;;
  3388                           
  3389                           	psect	text11
  3390   00497A                     __ptext11:
  3391                           	callstack 0
  3392   00497A                     _memcpy:
  3393                           	callstack 121
  3394   00497A  C503  F509         	movff	memcpy@s1,memcpy@s
  3395   00497E  C504  F50A         	movff	memcpy@s1+1,memcpy@s+1
  3396   004982  C501  F507         	movff	memcpy@d1,memcpy@d
  3397   004986  C502  F508         	movff	memcpy@d1+1,memcpy@d+1
  3398   00498A  EFD7  F024         	goto	i2l2949
  3399   00498E                     i2l2941:
  3400   00498E  C509  F4D9         	movff	memcpy@s,fsr2l
  3401   004992  C50A  F4DA         	movff	memcpy@s+1,fsr2h
  3402   004996  50DF               	movf	indf2,w,c
  3403   004998  6E0B               	movwf	memcpy@tmp^(0+1280),c
  3404   00499A  4A09               	infsnz	memcpy@s^(0+1280),f,c
  3405   00499C  2A0A               	incf	(memcpy@s+1)^(0+1280),f,c
  3406   00499E  C507  F4D9         	movff	memcpy@d,fsr2l
  3407   0049A2  C508  F4DA         	movff	memcpy@d+1,fsr2h
  3408   0049A6  C50B  F4DF         	movff	memcpy@tmp,indf2
  3409   0049AA  4A07               	infsnz	memcpy@d^(0+1280),f,c
  3410   0049AC  2A08               	incf	(memcpy@d+1)^(0+1280),f,c
  3411   0049AE                     i2l2949:
  3412   0049AE  0605               	decf	memcpy@n^(0+1280),f,c
  3413   0049B0  A0D8               	btfss	status,0,c
  3414   0049B2  0606               	decf	(memcpy@n+1)^(0+1280),f,c
  3415   0049B4  2805               	incf	memcpy@n^(0+1280),w,c
  3416   0049B6  E106               	bnz	i2u294_41
  3417   0049B8  2806               	incf	(memcpy@n+1)^(0+1280),w,c
  3418   0049BA  A4D8               	btfss	status,2,c
  3419   0049BC  EFE2  F024         	goto	i2u294_41
  3420   0049C0  EFE4  F024         	goto	i2u294_40
  3421   0049C4                     i2u294_41:
  3422   0049C4  EFC7  F024         	goto	i2l2941
  3423   0049C8                     i2u294_40:
  3424   0049C8  0012               	return		;funcret
  3425   0049CA                     __end_of_memcpy:
  3426                           	callstack 0
  3427                           
  3428 ;; *************** function _labs *****************
  3429 ;; Defined at:
  3430 ;;		line 1 in file "D:\XC8\pic\sources\c99\common\labs.c"
  3431 ;; Parameters:    Size  Location     Type
  3432 ;;  a               4    0[COMRAM] long 
  3433 ;; Auto vars:     Size  Location     Type
  3434 ;;		None
  3435 ;; Return value:  Size  Location     Type
  3436 ;;                  4    0[COMRAM] long 
  3437 ;; Registers used:
  3438 ;;		wreg, status,2, status,0
  3439 ;; Tracked objects:
  3440 ;;		On entry : 0/0
  3441 ;;		On exit  : 0/0
  3442 ;;		Unchanged: 0/0
  3443 ;; Data sizes:     COMRAM   BANK5   BANK6   BANK7   BANK8   BANK9  BANK10  BANK11  BANK12  BANK13  BANK14  BANK15  BANK1
      +6  BANK17  BANK18  BANK19  BANK20  BANK21  BANK22  BANK23  BANK24  BANK25  BANK26  BANK27  BANK28  BANK29  BANK30  BANK3
      +1  BANK32  BANK33  BANK34  BANK35  BANK36
  3444 ;;      Params:         4       0       0       0       0       0       0       0       0       0       0       0       
      +0       0       0       0       0       0       0       0       0       0       0       0       0       0       0       
      +0       0       0       0       0       0
  3445 ;;      Locals:         0       0       0       0       0       0       0       0       0       0       0       0       
      +0       0       0       0       0       0       0       0       0       0       0       0       0       0       0       
      +0       0       0       0       0       0
  3446 ;;      Temps:          4       0       0       0       0       0       0       0       0       0       0       0       
      +0       0       0       0       0       0       0       0       0       0       0       0       0       0       0       
      +0       0       0       0       0       0
  3447 ;;      Totals:         8       0       0       0       0       0       0       0       0       0       0       0       
      +0       0       0       0       0       0       0       0       0       0       0       0       0       0       0       
      +0       0       0       0       0       0
  3448 ;;Total ram usage:        8 bytes
  3449 ;; Hardware stack levels used: 1
  3450 ;; This function calls:
  3451 ;;		Nothing
  3452 ;; This function is called by:
  3453 ;;		_efgtoa
  3454 ;; This function uses a non-reentrant model
  3455 ;;
  3456                           
  3457                           	psect	text12
  3458   00486C                     __ptext12:
  3459                           	callstack 0
  3460   00486C                     _labs:
  3461                           	callstack 121
  3462   00486C  BE04               	btfsc	(labs@a+3)^(0+1280),7,c
  3463   00486E  EF45  F024         	goto	i2u283_40
  3464   004872  5004               	movf	(labs@a+3)^(0+1280),w,c
  3465   004874  1003               	iorwf	(labs@a+2)^(0+1280),w,c
  3466   004876  1002               	iorwf	(labs@a+1)^(0+1280),w,c
  3467   004878  E106               	bnz	i2u283_41
  3468   00487A  0401               	decf	labs@a^(0+1280),w,c
  3469   00487C  B0D8               	btfsc	status,0,c
  3470   00487E  EF43  F024         	goto	i2u283_41
  3471   004882  EF45  F024         	goto	i2u283_40
  3472   004886                     i2u283_41:
  3473   004886  EF60  F024         	goto	i2l1015
  3474   00488A                     i2u283_40:
  3475   00488A  C501  F505         	movff	labs@a,??_labs
  3476   00488E  C502  F506         	movff	labs@a+1,??_labs+1
  3477   004892  C503  F507         	movff	labs@a+2,??_labs+2
  3478   004896  C504  F508         	movff	labs@a+3,??_labs+3
  3479   00489A  1E05               	comf	??_labs^(0+1280),f,c
  3480   00489C  1E06               	comf	(??_labs+1)^(0+1280),f,c
  3481   00489E  1E07               	comf	(??_labs+2)^(0+1280),f,c
  3482   0048A0  1E08               	comf	(??_labs+3)^(0+1280),f,c
  3483   0048A2  2A05               	incf	??_labs^(0+1280),f,c
  3484   0048A4  0E00               	movlw	0
  3485   0048A6  2206               	addwfc	(??_labs+1)^(0+1280),f,c
  3486   0048A8  2207               	addwfc	(??_labs+2)^(0+1280),f,c
  3487   0048AA  2208               	addwfc	(??_labs+3)^(0+1280),f,c
  3488   0048AC  C505  F501         	movff	??_labs,?_labs
  3489   0048B0  C506  F502         	movff	??_labs+1,?_labs+1
  3490   0048B4  C507  F503         	movff	??_labs+2,?_labs+2
  3491   0048B8  C508  F504         	movff	??_labs+3,?_labs+3
  3492   0048BC  EF68  F024         	goto	i2l1018
  3493   0048C0                     i2l1015:
  3494   0048C0  C501  F501         	movff	labs@a,?_labs
  3495   0048C4  C502  F502         	movff	labs@a+1,?_labs+1
  3496   0048C8  C503  F503         	movff	labs@a+2,?_labs+2
  3497   0048CC  C504  F504         	movff	labs@a+3,?_labs+3
  3498   0048D0                     i2l1018:
  3499   0048D0  0012               	return		;funcret
  3500   0048D2                     __end_of_labs:
  3501                           	callstack 0
  3502                           
  3503 ;; *************** function _floorf *****************
  3504 ;; Defined at:
  3505 ;;		line 3 in file "D:\XC8\pic\sources\c99\common\floorf.c"
  3506 ;; Parameters:    Size  Location     Type
  3507 ;;  x               4   25[COMRAM] float 
  3508 ;; Auto vars:     Size  Location     Type
  3509 ;;  u               4   41[COMRAM] struct .
  3510 ;;  m               4   35[COMRAM] unsigned long 
  3511 ;;  e               2   39[COMRAM] int 
  3512 ;; Return value:  Size  Location     Type
  3513 ;;                  4   25[COMRAM] float 
  3514 ;; Registers used:
  3515 ;;		wreg, status,2, status,0
  3516 ;; Tracked objects:
  3517 ;;		On entry : 0/0
  3518 ;;		On exit  : 0/0
  3519 ;;		Unchanged: 0/0
  3520 ;; Data sizes:     COMRAM   BANK5   BANK6   BANK7   BANK8   BANK9  BANK10  BANK11  BANK12  BANK13  BANK14  BANK15  BANK1
      +6  BANK17  BANK18  BANK19  BANK20  BANK21  BANK22  BANK23  BANK24  BANK25  BANK26  BANK27  BANK28  BANK29  BANK30  BANK3
      +1  BANK32  BANK33  BANK34  BANK35  BANK36
  3521 ;;      Params:         4       0       0       0       0       0       0       0       0       0       0       0       
      +0       0       0       0       0       0       0       0       0       0       0       0       0       0       0       
      +0       0       0       0       0       0
  3522 ;;      Locals:        10       0       0       0       0       0       0       0       0       0       0       0       
      +0       0       0       0       0       0       0       0       0       0       0       0       0       0       0       
      +0       0       0       0       0       0
  3523 ;;      Temps:          6       0       0       0       0       0       0       0       0       0       0       0       
      +0       0       0       0       0       0       0       0       0       0       0       0       0       0       0       
      +0       0       0       0       0       0
  3524 ;;      Totals:        20       0       0       0       0       0       0       0       0       0       0       0       
      +0       0       0       0       0       0       0       0       0       0       0       0       0       0       0       
      +0       0       0       0       0       0
  3525 ;;Total ram usage:       20 bytes
  3526 ;; Hardware stack levels used: 1
  3527 ;; This function calls:
  3528 ;;		Nothing
  3529 ;; This function is called by:
  3530 ;;		_efgtoa
  3531 ;; This function uses a non-reentrant model
  3532 ;;
  3533                           
  3534                           	psect	text13
  3535   003EC0                     __ptext13:
  3536                           	callstack 0
  3537   003EC0                     _floorf:
  3538                           	callstack 121
  3539   003EC0  C5AF  F52A         	movff	floorf@F526,floorf@u
  3540   003EC4  C5B0  F52B         	movff	floorf@F526+1,floorf@u+1
  3541   003EC8  C5B1  F52C         	movff	floorf@F526+2,floorf@u+2
  3542   003ECC  C5B2  F52D         	movff	floorf@F526+3,floorf@u+3
  3543   003ED0  C51A  F52A         	movff	floorf@x,floorf@u
  3544   003ED4  C51B  F52B         	movff	floorf@x+1,floorf@u+1
  3545   003ED8  C51C  F52C         	movff	floorf@x+2,floorf@u+2
  3546   003EDC  C51D  F52D         	movff	floorf@x+3,floorf@u+3
  3547   003EE0  0E81               	movlw	129
  3548   003EE2  6E1E               	movwf	??_floorf^(0+1280),c
  3549   003EE4  0EFF               	movlw	255
  3550   003EE6  6E1F               	movwf	(??_floorf+1)^(0+1280),c
  3551   003EE8  C52A  F520         	movff	floorf@u,??_floorf+2
  3552   003EEC  C52B  F521         	movff	floorf@u+1,??_floorf+3
  3553   003EF0  C52C  F522         	movff	floorf@u+2,??_floorf+4
  3554   003EF4  C52D  F523         	movff	floorf@u+3,??_floorf+5
  3555   003EF8  0E18               	movlw	24
  3556   003EFA  EF84  F01F         	goto	i2u284_40
  3557   003EFE                     i2u284_45:
  3558   003EFE  90D8               	bcf	status,0,c
  3559   003F00  3223               	rrcf	(??_floorf+5)^(0+1280),f,c
  3560   003F02  3222               	rrcf	(??_floorf+4)^(0+1280),f,c
  3561   003F04  3221               	rrcf	(??_floorf+3)^(0+1280),f,c
  3562   003F06  3220               	rrcf	(??_floorf+2)^(0+1280),f,c
  3563   003F08                     i2u284_40:
  3564   003F08  2EE8               	decfsz	wreg,f,c
  3565   003F0A  EF7F  F01F         	goto	i2u284_45
  3566   003F0E  5020               	movf	(??_floorf+2)^(0+1280),w,c
  3567   003F10  241E               	addwf	??_floorf^(0+1280),w,c
  3568   003F12  6E28               	movwf	floorf@e^(0+1280),c
  3569   003F14  0E00               	movlw	0
  3570   003F16  201F               	addwfc	(??_floorf+1)^(0+1280),w,c
  3571   003F18  6E29               	movwf	(floorf@e+1)^(0+1280),c
  3572   003F1A  BE29               	btfsc	(floorf@e+1)^(0+1280),7,c
  3573   003F1C  EF99  F01F         	goto	i2u285_41
  3574   003F20  5029               	movf	(floorf@e+1)^(0+1280),w,c
  3575   003F22  E109               	bnz	i2u285_40
  3576   003F24  0E17               	movlw	23
  3577   003F26  5C28               	subwf	floorf@e^(0+1280),w,c
  3578   003F28  A0D8               	btfss	status,0,c
  3579   003F2A  EF99  F01F         	goto	i2u285_41
  3580   003F2E  EF9B  F01F         	goto	i2u285_40
  3581   003F32                     i2u285_41:
  3582   003F32  EFA5  F01F         	goto	i2l2917
  3583   003F36                     i2u285_40:
  3584   003F36                     i2l2915:
  3585   003F36  C51A  F51A         	movff	floorf@x,?_floorf
  3586   003F3A  C51B  F51B         	movff	floorf@x+1,?_floorf+1
  3587   003F3E  C51C  F51C         	movff	floorf@x+2,?_floorf+2
  3588   003F42  C51D  F51D         	movff	floorf@x+3,?_floorf+3
  3589   003F46  EF68  F020         	goto	i2l1004
  3590   003F4A                     i2l2917:
  3591   003F4A  BE29               	btfsc	(floorf@e+1)^(0+1280),7,c
  3592   003F4C  EFAA  F01F         	goto	i2u286_41
  3593   003F50  EFAC  F01F         	goto	i2u286_40
  3594   003F54                     i2u286_41:
  3595   003F54  EF1C  F020         	goto	i2l2927
  3596   003F58                     i2u286_40:
  3597   003F58  C528  F51E         	movff	floorf@e,??_floorf
  3598   003F5C  0EFF               	movlw	255
  3599   003F5E  6E1F               	movwf	(??_floorf+1)^(0+1280),c
  3600   003F60  0EFF               	movlw	255
  3601   003F62  6E20               	movwf	(??_floorf+2)^(0+1280),c
  3602   003F64  0E7F               	movlw	127
  3603   003F66  6E21               	movwf	(??_floorf+3)^(0+1280),c
  3604   003F68  0E00               	movlw	0
  3605   003F6A  6E22               	movwf	(??_floorf+4)^(0+1280),c
  3606   003F6C                     i2u287_45:
  3607   003F6C  661E               	tstfsz	??_floorf^(0+1280),c
  3608   003F6E  EFBB  F01F         	goto	i2u287_46
  3609   003F72  EFC3  F01F         	goto	i2u287_47
  3610   003F76                     i2u287_46:
  3611   003F76  3422               	rlcf	(??_floorf+4)^(0+1280),w,c
  3612   003F78  3222               	rrcf	(??_floorf+4)^(0+1280),f,c
  3613   003F7A  3221               	rrcf	(??_floorf+3)^(0+1280),f,c
  3614   003F7C  3220               	rrcf	(??_floorf+2)^(0+1280),f,c
  3615   003F7E  321F               	rrcf	(??_floorf+1)^(0+1280),f,c
  3616   003F80  2E1E               	decfsz	??_floorf^(0+1280),f,c
  3617   003F82  EFB6  F01F         	goto	i2u287_45
  3618   003F86                     i2u287_47:
  3619   003F86  C51F  F524         	movff	??_floorf+1,floorf@m
  3620   003F8A  C520  F525         	movff	??_floorf+2,floorf@m+1
  3621   003F8E  C521  F526         	movff	??_floorf+3,floorf@m+2
  3622   003F92  C522  F527         	movff	??_floorf+4,floorf@m+3
  3623   003F96  5024               	movf	floorf@m^(0+1280),w,c
  3624   003F98  142A               	andwf	floorf@u^(0+1280),w,c
  3625   003F9A  6E1E               	movwf	??_floorf^(0+1280),c
  3626   003F9C  5025               	movf	(floorf@m+1)^(0+1280),w,c
  3627   003F9E  142B               	andwf	(floorf@u+1)^(0+1280),w,c
  3628   003FA0  6E1F               	movwf	(??_floorf+1)^(0+1280),c
  3629   003FA2  5026               	movf	(floorf@m+2)^(0+1280),w,c
  3630   003FA4  142C               	andwf	(floorf@u+2)^(0+1280),w,c
  3631   003FA6  6E20               	movwf	(??_floorf+2)^(0+1280),c
  3632   003FA8  5027               	movf	(floorf@m+3)^(0+1280),w,c
  3633   003FAA  142D               	andwf	(floorf@u+3)^(0+1280),w,c
  3634   003FAC  6E21               	movwf	(??_floorf+3)^(0+1280),c
  3635   003FAE  501E               	movf	??_floorf^(0+1280),w,c
  3636   003FB0  101F               	iorwf	(??_floorf+1)^(0+1280),w,c
  3637   003FB2  1020               	iorwf	(??_floorf+2)^(0+1280),w,c
  3638   003FB4  1021               	iorwf	(??_floorf+3)^(0+1280),w,c
  3639   003FB6  A4D8               	btfss	status,2,c
  3640   003FB8  EFE0  F01F         	goto	i2u288_41
  3641   003FBC  EFE2  F01F         	goto	i2u288_40
  3642   003FC0                     i2u288_41:
  3643   003FC0  EFE4  F01F         	goto	i2l2923
  3644   003FC4                     i2u288_40:
  3645   003FC4  EF9B  F01F         	goto	i2l2915
  3646   003FC8                     i2l2923:
  3647   003FC8  C52A  F51E         	movff	floorf@u,??_floorf
  3648   003FCC  C52B  F51F         	movff	floorf@u+1,??_floorf+1
  3649   003FD0  C52C  F520         	movff	floorf@u+2,??_floorf+2
  3650   003FD4  C52D  F521         	movff	floorf@u+3,??_floorf+3
  3651   003FD8  0E20               	movlw	32
  3652   003FDA  EFF4  F01F         	goto	i2u289_40
  3653   003FDE                     i2u289_45:
  3654   003FDE  90D8               	bcf	status,0,c
  3655   003FE0  3221               	rrcf	(??_floorf+3)^(0+1280),f,c
  3656   003FE2  3220               	rrcf	(??_floorf+2)^(0+1280),f,c
  3657   003FE4  321F               	rrcf	(??_floorf+1)^(0+1280),f,c
  3658   003FE6  321E               	rrcf	??_floorf^(0+1280),f,c
  3659   003FE8                     i2u289_40:
  3660   003FE8  2EE8               	decfsz	wreg,f,c
  3661   003FEA  EFEF  F01F         	goto	i2u289_45
  3662   003FEE  501E               	movf	??_floorf^(0+1280),w,c
  3663   003FF0  101F               	iorwf	(??_floorf+1)^(0+1280),w,c
  3664   003FF2  1020               	iorwf	(??_floorf+2)^(0+1280),w,c
  3665   003FF4  1021               	iorwf	(??_floorf+3)^(0+1280),w,c
  3666   003FF6  B4D8               	btfsc	status,2,c
  3667   003FF8  EF00  F020         	goto	i2u290_41
  3668   003FFC  EF02  F020         	goto	i2u290_40
  3669   004000                     i2u290_41:
  3670   004000  EF0A  F020         	goto	i2l1007
  3671   004004                     i2u290_40:
  3672   004004  5024               	movf	floorf@m^(0+1280),w,c
  3673   004006  262A               	addwf	floorf@u^(0+1280),f,c
  3674   004008  5025               	movf	(floorf@m+1)^(0+1280),w,c
  3675   00400A  222B               	addwfc	(floorf@u+1)^(0+1280),f,c
  3676   00400C  5026               	movf	(floorf@m+2)^(0+1280),w,c
  3677   00400E  222C               	addwfc	(floorf@u+2)^(0+1280),f,c
  3678   004010  5027               	movf	(floorf@m+3)^(0+1280),w,c
  3679   004012  222D               	addwfc	(floorf@u+3)^(0+1280),f,c
  3680   004014                     i2l1007:
  3681   004014  1C24               	comf	floorf@m^(0+1280),w,c
  3682   004016  6E1E               	movwf	??_floorf^(0+1280),c
  3683   004018  1C25               	comf	(floorf@m+1)^(0+1280),w,c
  3684   00401A  6E1F               	movwf	(??_floorf+1)^(0+1280),c
  3685   00401C  1C26               	comf	(floorf@m+2)^(0+1280),w,c
  3686   00401E  6E20               	movwf	(??_floorf+2)^(0+1280),c
  3687   004020  1C27               	comf	(floorf@m+3)^(0+1280),w,c
  3688   004022  6E21               	movwf	(??_floorf+3)^(0+1280),c
  3689   004024  501E               	movf	??_floorf^(0+1280),w,c
  3690   004026  162A               	andwf	floorf@u^(0+1280),f,c
  3691   004028  501F               	movf	(??_floorf+1)^(0+1280),w,c
  3692   00402A  162B               	andwf	(floorf@u+1)^(0+1280),f,c
  3693   00402C  5020               	movf	(??_floorf+2)^(0+1280),w,c
  3694   00402E  162C               	andwf	(floorf@u+2)^(0+1280),f,c
  3695   004030  5021               	movf	(??_floorf+3)^(0+1280),w,c
  3696   004032  162D               	andwf	(floorf@u+3)^(0+1280),f,c
  3697   004034  EF60  F020         	goto	i2l2935
  3698   004038                     i2l2927:
  3699   004038  C52A  F51E         	movff	floorf@u,??_floorf
  3700   00403C  C52B  F51F         	movff	floorf@u+1,??_floorf+1
  3701   004040  C52C  F520         	movff	floorf@u+2,??_floorf+2
  3702   004044  C52D  F521         	movff	floorf@u+3,??_floorf+3
  3703   004048  0E20               	movlw	32
  3704   00404A  EF2C  F020         	goto	i2u291_40
  3705   00404E                     i2u291_45:
  3706   00404E  90D8               	bcf	status,0,c
  3707   004050  3221               	rrcf	(??_floorf+3)^(0+1280),f,c
  3708   004052  3220               	rrcf	(??_floorf+2)^(0+1280),f,c
  3709   004054  321F               	rrcf	(??_floorf+1)^(0+1280),f,c
  3710   004056  321E               	rrcf	??_floorf^(0+1280),f,c
  3711   004058                     i2u291_40:
  3712   004058  2EE8               	decfsz	wreg,f,c
  3713   00405A  EF27  F020         	goto	i2u291_45
  3714   00405E  501E               	movf	??_floorf^(0+1280),w,c
  3715   004060  101F               	iorwf	(??_floorf+1)^(0+1280),w,c
  3716   004062  1020               	iorwf	(??_floorf+2)^(0+1280),w,c
  3717   004064  1021               	iorwf	(??_floorf+3)^(0+1280),w,c
  3718   004066  A4D8               	btfss	status,2,c
  3719   004068  EF38  F020         	goto	i2u292_41
  3720   00406C  EF3A  F020         	goto	i2u292_40
  3721   004070                     i2u292_41:
  3722   004070  EF44  F020         	goto	i2l2931
  3723   004074                     i2u292_40:
  3724   004074  0E00               	movlw	0
  3725   004076  6E2A               	movwf	floorf@u^(0+1280),c
  3726   004078  0E00               	movlw	0
  3727   00407A  6E2B               	movwf	(floorf@u+1)^(0+1280),c
  3728   00407C  0E00               	movlw	0
  3729   00407E  6E2C               	movwf	(floorf@u+2)^(0+1280),c
  3730   004080  0E00               	movlw	0
  3731   004082  6E2D               	movwf	(floorf@u+3)^(0+1280),c
  3732   004084  EF60  F020         	goto	i2l2935
  3733   004088                     i2l2931:
  3734   004088  90D8               	bcf	status,0,c
  3735   00408A  342A               	rlcf	floorf@u^(0+1280),w,c
  3736   00408C  6E1E               	movwf	??_floorf^(0+1280),c
  3737   00408E  342B               	rlcf	(floorf@u+1)^(0+1280),w,c
  3738   004090  6E1F               	movwf	(??_floorf+1)^(0+1280),c
  3739   004092  342C               	rlcf	(floorf@u+2)^(0+1280),w,c
  3740   004094  6E20               	movwf	(??_floorf+2)^(0+1280),c
  3741   004096  342D               	rlcf	(floorf@u+3)^(0+1280),w,c
  3742   004098  6E21               	movwf	(??_floorf+3)^(0+1280),c
  3743   00409A  501E               	movf	??_floorf^(0+1280),w,c
  3744   00409C  101F               	iorwf	(??_floorf+1)^(0+1280),w,c
  3745   00409E  1020               	iorwf	(??_floorf+2)^(0+1280),w,c
  3746   0040A0  1021               	iorwf	(??_floorf+3)^(0+1280),w,c
  3747   0040A2  B4D8               	btfsc	status,2,c
  3748   0040A4  EF56  F020         	goto	i2u293_41
  3749   0040A8  EF58  F020         	goto	i2u293_40
  3750   0040AC                     i2u293_41:
  3751   0040AC  EF60  F020         	goto	i2l2935
  3752   0040B0                     i2u293_40:
  3753   0040B0  0E00               	movlw	0
  3754   0040B2  6E2A               	movwf	floorf@u^(0+1280),c
  3755   0040B4  0E00               	movlw	0
  3756   0040B6  6E2B               	movwf	(floorf@u+1)^(0+1280),c
  3757   0040B8  0E80               	movlw	128
  3758   0040BA  6E2C               	movwf	(floorf@u+2)^(0+1280),c
  3759   0040BC  0EBF               	movlw	191
  3760   0040BE  6E2D               	movwf	(floorf@u+3)^(0+1280),c
  3761   0040C0                     i2l2935:
  3762   0040C0  C52A  F51A         	movff	floorf@u,?_floorf
  3763   0040C4  C52B  F51B         	movff	floorf@u+1,?_floorf+1
  3764   0040C8  C52C  F51C         	movff	floorf@u+2,?_floorf+2
  3765   0040CC  C52D  F51D         	movff	floorf@u+3,?_floorf+3
  3766   0040D0                     i2l1004:
  3767   0040D0  0012               	return		;funcret
  3768   0040D2                     __end_of_floorf:
  3769                           	callstack 0
  3770                           
  3771 ;; *************** function ___fpclassifyf *****************
  3772 ;; Defined at:
  3773 ;;		line 4 in file "D:\XC8\pic\sources\c99\common\__fpclassifyf.c"
  3774 ;; Parameters:    Size  Location     Type
  3775 ;;  x               4    0[COMRAM] float 
  3776 ;; Auto vars:     Size  Location     Type
  3777 ;;  u               4   10[COMRAM] struct .
  3778 ;;  e               2    8[COMRAM] int 
  3779 ;; Return value:  Size  Location     Type
  3780 ;;                  2    0[COMRAM] int 
  3781 ;; Registers used:
  3782 ;;		wreg, status,2, status,0
  3783 ;; Tracked objects:
  3784 ;;		On entry : 0/0
  3785 ;;		On exit  : 0/0
  3786 ;;		Unchanged: 0/0
  3787 ;; Data sizes:     COMRAM   BANK5   BANK6   BANK7   BANK8   BANK9  BANK10  BANK11  BANK12  BANK13  BANK14  BANK15  BANK1
      +6  BANK17  BANK18  BANK19  BANK20  BANK21  BANK22  BANK23  BANK24  BANK25  BANK26  BANK27  BANK28  BANK29  BANK30  BANK3
      +1  BANK32  BANK33  BANK34  BANK35  BANK36
  3788 ;;      Params:         4       0       0       0       0       0       0       0       0       0       0       0       
      +0       0       0       0       0       0       0       0       0       0       0       0       0       0       0       
      +0       0       0       0       0       0
  3789 ;;      Locals:         6       0       0       0       0       0       0       0       0       0       0       0       
      +0       0       0       0       0       0       0       0       0       0       0       0       0       0       0       
      +0       0       0       0       0       0
  3790 ;;      Temps:          4       0       0       0       0       0       0       0       0       0       0       0       
      +0       0       0       0       0       0       0       0       0       0       0       0       0       0       0       
      +0       0       0       0       0       0
  3791 ;;      Totals:        14       0       0       0       0       0       0       0       0       0       0       0       
      +0       0       0       0       0       0       0       0       0       0       0       0       0       0       0       
      +0       0       0       0       0       0
  3792 ;;Total ram usage:       14 bytes
  3793 ;; Hardware stack levels used: 1
  3794 ;; This function calls:
  3795 ;;		Nothing
  3796 ;; This function is called by:
  3797 ;;		_efgtoa
  3798 ;; This function uses a non-reentrant model
  3799 ;;
  3800                           
  3801                           	psect	text14
  3802   004490                     __ptext14:
  3803                           	callstack 0
  3804   004490                     ___fpclassifyf:
  3805                           	callstack 121
  3806   004490  C5B3  F50B         	movff	___fpclassifyf@F465,___fpclassifyf@u
  3807   004494  C5B4  F50C         	movff	___fpclassifyf@F465+1,___fpclassifyf@u+1
  3808   004498  C5B5  F50D         	movff	___fpclassifyf@F465+2,___fpclassifyf@u+2
  3809   00449C  C5B6  F50E         	movff	___fpclassifyf@F465+3,___fpclassifyf@u+3
  3810   0044A0  C501  F50B         	movff	___fpclassifyf@x,___fpclassifyf@u
  3811   0044A4  C502  F50C         	movff	___fpclassifyf@x+1,___fpclassifyf@u+1
  3812   0044A8  C503  F50D         	movff	___fpclassifyf@x+2,___fpclassifyf@u+2
  3813   0044AC  C504  F50E         	movff	___fpclassifyf@x+3,___fpclassifyf@u+3
  3814   0044B0  C50B  F505         	movff	___fpclassifyf@u,??___fpclassifyf
  3815   0044B4  C50C  F506         	movff	___fpclassifyf@u+1,??___fpclassifyf+1
  3816   0044B8  C50D  F507         	movff	___fpclassifyf@u+2,??___fpclassifyf+2
  3817   0044BC  C50E  F508         	movff	___fpclassifyf@u+3,??___fpclassifyf+3
  3818   0044C0  0E18               	movlw	24
  3819   0044C2  EF68  F022         	goto	i2u275_40
  3820   0044C6                     i2u275_45:
  3821   0044C6  90D8               	bcf	status,0,c
  3822   0044C8  3208               	rrcf	(??___fpclassifyf+3)^(0+1280),f,c
  3823   0044CA  3207               	rrcf	(??___fpclassifyf+2)^(0+1280),f,c
  3824   0044CC  3206               	rrcf	(??___fpclassifyf+1)^(0+1280),f,c
  3825   0044CE  3205               	rrcf	??___fpclassifyf^(0+1280),f,c
  3826   0044D0                     i2u275_40:
  3827   0044D0  2EE8               	decfsz	wreg,f,c
  3828   0044D2  EF63  F022         	goto	i2u275_45
  3829   0044D6  5005               	movf	??___fpclassifyf^(0+1280),w,c
  3830   0044D8  6E09               	movwf	___fpclassifyf@e^(0+1280),c
  3831   0044DA  6A0A               	clrf	(___fpclassifyf@e+1)^(0+1280),c
  3832   0044DC  5009               	movf	___fpclassifyf@e^(0+1280),w,c
  3833   0044DE  100A               	iorwf	(___fpclassifyf@e+1)^(0+1280),w,c
  3834   0044E0  A4D8               	btfss	status,2,c
  3835   0044E2  EF75  F022         	goto	i2u276_41
  3836   0044E6  EF77  F022         	goto	i2u276_40
  3837   0044EA                     i2u276_41:
  3838   0044EA  EF97  F022         	goto	i2l2893
  3839   0044EE                     i2u276_40:
  3840   0044EE  90D8               	bcf	status,0,c
  3841   0044F0  340B               	rlcf	___fpclassifyf@u^(0+1280),w,c
  3842   0044F2  6E05               	movwf	??___fpclassifyf^(0+1280),c
  3843   0044F4  340C               	rlcf	(___fpclassifyf@u+1)^(0+1280),w,c
  3844   0044F6  6E06               	movwf	(??___fpclassifyf+1)^(0+1280),c
  3845   0044F8  340D               	rlcf	(___fpclassifyf@u+2)^(0+1280),w,c
  3846   0044FA  6E07               	movwf	(??___fpclassifyf+2)^(0+1280),c
  3847   0044FC  340E               	rlcf	(___fpclassifyf@u+3)^(0+1280),w,c
  3848   0044FE  6E08               	movwf	(??___fpclassifyf+3)^(0+1280),c
  3849   004500  5005               	movf	??___fpclassifyf^(0+1280),w,c
  3850   004502  1006               	iorwf	(??___fpclassifyf+1)^(0+1280),w,c
  3851   004504  1007               	iorwf	(??___fpclassifyf+2)^(0+1280),w,c
  3852   004506  1008               	iorwf	(??___fpclassifyf+3)^(0+1280),w,c
  3853   004508  A4D8               	btfss	status,2,c
  3854   00450A  EF89  F022         	goto	i2u277_41
  3855   00450E  EF8B  F022         	goto	i2u277_40
  3856   004512                     i2u277_41:
  3857   004512  EF91  F022         	goto	i2l2889
  3858   004516                     i2u277_40:
  3859   004516  0E00               	movlw	0
  3860   004518  6E02               	movwf	(?___fpclassifyf+1)^(0+1280),c
  3861   00451A  0E02               	movlw	2
  3862   00451C  6E01               	movwf	?___fpclassifyf^(0+1280),c
  3863   00451E  EFC6  F022         	goto	i2l997
  3864   004522                     i2l2889:
  3865   004522  0E00               	movlw	0
  3866   004524  6E02               	movwf	(?___fpclassifyf+1)^(0+1280),c
  3867   004526  0E03               	movlw	3
  3868   004528  6E01               	movwf	?___fpclassifyf^(0+1280),c
  3869   00452A  EFC6  F022         	goto	i2l997
  3870   00452E                     i2l2893:
  3871   00452E  2809               	incf	___fpclassifyf@e^(0+1280),w,c
  3872   004530  100A               	iorwf	(___fpclassifyf@e+1)^(0+1280),w,c
  3873   004532  A4D8               	btfss	status,2,c
  3874   004534  EF9E  F022         	goto	i2u278_41
  3875   004538  EFA0  F022         	goto	i2u278_40
  3876   00453C                     i2u278_41:
  3877   00453C  EFC2  F022         	goto	i2l2899
  3878   004540                     i2u278_40:
  3879   004540  C50B  F505         	movff	___fpclassifyf@u,??___fpclassifyf
  3880   004544  C50C  F506         	movff	___fpclassifyf@u+1,??___fpclassifyf+1
  3881   004548  C50D  F507         	movff	___fpclassifyf@u+2,??___fpclassifyf+2
  3882   00454C  C50E  F508         	movff	___fpclassifyf@u+3,??___fpclassifyf+3
  3883   004550  0E09               	movlw	9
  3884   004552                     i2u279_45:
  3885   004552  90D8               	bcf	status,0,c
  3886   004554  3605               	rlcf	??___fpclassifyf^(0+1280),f,c
  3887   004556  3606               	rlcf	(??___fpclassifyf+1)^(0+1280),f,c
  3888   004558  3607               	rlcf	(??___fpclassifyf+2)^(0+1280),f,c
  3889   00455A  3608               	rlcf	(??___fpclassifyf+3)^(0+1280),f,c
  3890   00455C  2EE8               	decfsz	wreg,f,c
  3891   00455E  EFA9  F022         	goto	i2u279_45
  3892   004562  5005               	movf	??___fpclassifyf^(0+1280),w,c
  3893   004564  1006               	iorwf	(??___fpclassifyf+1)^(0+1280),w,c
  3894   004566  1007               	iorwf	(??___fpclassifyf+2)^(0+1280),w,c
  3895   004568  1008               	iorwf	(??___fpclassifyf+3)^(0+1280),w,c
  3896   00456A  B4D8               	btfsc	status,2,c
  3897   00456C  EFBA  F022         	goto	i2u280_41
  3898   004570  EFBD  F022         	goto	i2u280_40
  3899   004574                     i2u280_41:
  3900   004574  0E01               	movlw	1
  3901   004576  EFBE  F022         	goto	i2u281_40
  3902   00457A                     i2u280_40:
  3903   00457A  0E00               	movlw	0
  3904   00457C                     i2u281_40:
  3905   00457C  6E01               	movwf	?___fpclassifyf^(0+1280),c
  3906   00457E  6A02               	clrf	(?___fpclassifyf+1)^(0+1280),c
  3907   004580  EFC6  F022         	goto	i2l997
  3908   004584                     i2l2899:
  3909   004584  0E00               	movlw	0
  3910   004586  6E02               	movwf	(?___fpclassifyf+1)^(0+1280),c
  3911   004588  0E04               	movlw	4
  3912   00458A  6E01               	movwf	?___fpclassifyf^(0+1280),c
  3913   00458C                     i2l997:
  3914   00458C  0012               	return		;funcret
  3915   00458E                     __end_of___fpclassifyf:
  3916                           	callstack 0
  3917                           
  3918 ;; *************** function ___fltol *****************
  3919 ;; Defined at:
  3920 ;;		line 43 in file "D:\XC8\pic\sources\c99\common\fltol.c"
  3921 ;; Parameters:    Size  Location     Type
  3922 ;;  f1              4    0[COMRAM] int 
  3923 ;; Auto vars:     Size  Location     Type
  3924 ;;  exp1            1    9[COMRAM] unsigned char 
  3925 ;;  sign1           1    8[COMRAM] unsigned char 
  3926 ;; Return value:  Size  Location     Type
  3927 ;;                  4    0[COMRAM] long 
  3928 ;; Registers used:
  3929 ;;		wreg, status,2, status,0
  3930 ;; Tracked objects:
  3931 ;;		On entry : 0/0
  3932 ;;		On exit  : 0/0
  3933 ;;		Unchanged: 0/0
  3934 ;; Data sizes:     COMRAM   BANK5   BANK6   BANK7   BANK8   BANK9  BANK10  BANK11  BANK12  BANK13  BANK14  BANK15  BANK1
      +6  BANK17  BANK18  BANK19  BANK20  BANK21  BANK22  BANK23  BANK24  BANK25  BANK26  BANK27  BANK28  BANK29  BANK30  BANK3
      +1  BANK32  BANK33  BANK34  BANK35  BANK36
  3935 ;;      Params:         4       0       0       0       0       0       0       0       0       0       0       0       
      +0       0       0       0       0       0       0       0       0       0       0       0       0       0       0       
      +0       0       0       0       0       0
  3936 ;;      Locals:         2       0       0       0       0       0       0       0       0       0       0       0       
      +0       0       0       0       0       0       0       0       0       0       0       0       0       0       0       
      +0       0       0       0       0       0
  3937 ;;      Temps:          4       0       0       0       0       0       0       0       0       0       0       0       
      +0       0       0       0       0       0       0       0       0       0       0       0       0       0       0       
      +0       0       0       0       0       0
  3938 ;;      Totals:        10       0       0       0       0       0       0       0       0       0       0       0       
      +0       0       0       0       0       0       0       0       0       0       0       0       0       0       0       
      +0       0       0       0       0       0
  3939 ;;Total ram usage:       10 bytes
  3940 ;; Hardware stack levels used: 1
  3941 ;; This function calls:
  3942 ;;		Nothing
  3943 ;; This function is called by:
  3944 ;;		_efgtoa
  3945 ;; This function uses a non-reentrant model
  3946 ;;
  3947                           
  3948                           	psect	text15
  3949   004286                     __ptext15:
  3950                           	callstack 0
  3951   004286                     ___fltol:
  3952                           	callstack 121
  3953   004286  3403               	rlcf	(___fltol@f1+2)^(0+1280),w,c
  3954   004288  3404               	rlcf	(___fltol@f1+3)^(0+1280),w,c
  3955   00428A  6E0A               	movwf	___fltol@exp1^(0+1280),c
  3956   00428C  500A               	movf	___fltol@exp1^(0+1280),w,c
  3957   00428E  A4D8               	btfss	status,2,c
  3958   004290  EF4C  F021         	goto	i2u266_41
  3959   004294  EF4E  F021         	goto	i2u266_40
  3960   004298                     i2u266_41:
  3961   004298  EF58  F021         	goto	i2l2829
  3962   00429C                     i2u266_40:
  3963   00429C                     i2l2825:
  3964   00429C  0E00               	movlw	0
  3965   00429E  6E01               	movwf	?___fltol^(0+1280),c
  3966   0042A0  0E00               	movlw	0
  3967   0042A2  6E02               	movwf	(?___fltol+1)^(0+1280),c
  3968   0042A4  0E00               	movlw	0
  3969   0042A6  6E03               	movwf	(?___fltol+2)^(0+1280),c
  3970   0042A8  0E00               	movlw	0
  3971   0042AA  6E04               	movwf	(?___fltol+3)^(0+1280),c
  3972   0042AC  EFC5  F021         	goto	i2l494
  3973   0042B0                     i2l2829:
  3974   0042B0  C501  F505         	movff	___fltol@f1,??___fltol
  3975   0042B4  C502  F506         	movff	___fltol@f1+1,??___fltol+1
  3976   0042B8  C503  F507         	movff	___fltol@f1+2,??___fltol+2
  3977   0042BC  C504  F508         	movff	___fltol@f1+3,??___fltol+3
  3978   0042C0  0E20               	movlw	32
  3979   0042C2  EF68  F021         	goto	i2u267_40
  3980   0042C6                     i2u267_45:
  3981   0042C6  90D8               	bcf	status,0,c
  3982   0042C8  3208               	rrcf	(??___fltol+3)^(0+1280),f,c
  3983   0042CA  3207               	rrcf	(??___fltol+2)^(0+1280),f,c
  3984   0042CC  3206               	rrcf	(??___fltol+1)^(0+1280),f,c
  3985   0042CE  3205               	rrcf	??___fltol^(0+1280),f,c
  3986   0042D0                     i2u267_40:
  3987   0042D0  2EE8               	decfsz	wreg,f,c
  3988   0042D2  EF63  F021         	goto	i2u267_45
  3989   0042D6  5005               	movf	??___fltol^(0+1280),w,c
  3990   0042D8  6E09               	movwf	___fltol@sign1^(0+1280),c
  3991   0042DA  8E03               	bsf	(___fltol@f1+2)^(0+1280),7,c
  3992   0042DC  0EFF               	movlw	255
  3993   0042DE  1601               	andwf	___fltol@f1^(0+1280),f,c
  3994   0042E0  0EFF               	movlw	255
  3995   0042E2  1602               	andwf	(___fltol@f1+1)^(0+1280),f,c
  3996   0042E4  0EFF               	movlw	255
  3997   0042E6  1603               	andwf	(___fltol@f1+2)^(0+1280),f,c
  3998   0042E8  0E00               	movlw	0
  3999   0042EA  1604               	andwf	(___fltol@f1+3)^(0+1280),f,c
  4000   0042EC  0E96               	movlw	150
  4001   0042EE  5E0A               	subwf	___fltol@exp1^(0+1280),f,c
  4002   0042F0  BE0A               	btfsc	___fltol@exp1^(0+1280),7,c
  4003   0042F2  EF7F  F021         	goto	i2u268_40
  4004   0042F6  EF7D  F021         	goto	i2u268_41
  4005   0042FA                     i2u268_41:
  4006   0042FA  EF95  F021         	goto	i2l2849
  4007   0042FE                     i2u268_40:
  4008   0042FE  500A               	movf	___fltol@exp1^(0+1280),w,c
  4009   004300  0A80               	xorlw	128
  4010   004302  0F97               	addlw	151
  4011   004304  B0D8               	btfsc	status,0,c
  4012   004306  EF87  F021         	goto	i2u269_41
  4013   00430A  EF89  F021         	goto	i2u269_40
  4014   00430E                     i2u269_41:
  4015   00430E  EF8B  F021         	goto	i2l2845
  4016   004312                     i2u269_40:
  4017   004312  EF4E  F021         	goto	i2l2825
  4018   004316                     i2l2845:
  4019   004316  90D8               	bcf	status,0,c
  4020   004318  3204               	rrcf	(___fltol@f1+3)^(0+1280),f,c
  4021   00431A  3203               	rrcf	(___fltol@f1+2)^(0+1280),f,c
  4022   00431C  3202               	rrcf	(___fltol@f1+1)^(0+1280),f,c
  4023   00431E  3201               	rrcf	___fltol@f1^(0+1280),f,c
  4024   004320  3E0A               	incfsz	___fltol@exp1^(0+1280),f,c
  4025   004322  EF8B  F021         	goto	i2l2845
  4026   004326  EFAD  F021         	goto	i2l2859
  4027   00432A                     i2l2849:
  4028   00432A  0E1F               	movlw	31
  4029   00432C  640A               	cpfsgt	___fltol@exp1^(0+1280),c
  4030   00432E  EF9B  F021         	goto	i2u270_41
  4031   004332  EF9D  F021         	goto	i2u270_40
  4032   004336                     i2u270_41:
  4033   004336  EFA5  F021         	goto	i2l2857
  4034   00433A                     i2u270_40:
  4035   00433A  EF4E  F021         	goto	i2l2825
  4036   00433E                     i2l2855:
  4037   00433E  90D8               	bcf	status,0,c
  4038   004340  3601               	rlcf	___fltol@f1^(0+1280),f,c
  4039   004342  3602               	rlcf	(___fltol@f1+1)^(0+1280),f,c
  4040   004344  3603               	rlcf	(___fltol@f1+2)^(0+1280),f,c
  4041   004346  3604               	rlcf	(___fltol@f1+3)^(0+1280),f,c
  4042   004348  060A               	decf	___fltol@exp1^(0+1280),f,c
  4043   00434A                     i2l2857:
  4044   00434A  500A               	movf	___fltol@exp1^(0+1280),w,c
  4045   00434C  A4D8               	btfss	status,2,c
  4046   00434E  EFAB  F021         	goto	i2u271_41
  4047   004352  EFAD  F021         	goto	i2u271_40
  4048   004356                     i2u271_41:
  4049   004356  EF9F  F021         	goto	i2l2855
  4050   00435A                     i2u271_40:
  4051   00435A                     i2l2859:
  4052   00435A  5009               	movf	___fltol@sign1^(0+1280),w,c
  4053   00435C  B4D8               	btfsc	status,2,c
  4054   00435E  EFB3  F021         	goto	i2u272_41
  4055   004362  EFB5  F021         	goto	i2u272_40
  4056   004366                     i2u272_41:
  4057   004366  EFBD  F021         	goto	i2l2863
  4058   00436A                     i2u272_40:
  4059   00436A  1E04               	comf	(___fltol@f1+3)^(0+1280),f,c
  4060   00436C  1E03               	comf	(___fltol@f1+2)^(0+1280),f,c
  4061   00436E  1E02               	comf	(___fltol@f1+1)^(0+1280),f,c
  4062   004370  6C01               	negf	___fltol@f1^(0+1280),c
  4063   004372  0E00               	movlw	0
  4064   004374  2202               	addwfc	(___fltol@f1+1)^(0+1280),f,c
  4065   004376  2203               	addwfc	(___fltol@f1+2)^(0+1280),f,c
  4066   004378  2204               	addwfc	(___fltol@f1+3)^(0+1280),f,c
  4067   00437A                     i2l2863:
  4068   00437A  C501  F501         	movff	___fltol@f1,?___fltol
  4069   00437E  C502  F502         	movff	___fltol@f1+1,?___fltol+1
  4070   004382  C503  F503         	movff	___fltol@f1+2,?___fltol+2
  4071   004386  C504  F504         	movff	___fltol@f1+3,?___fltol+3
  4072   00438A                     i2l494:
  4073   00438A  0012               	return		;funcret
  4074   00438C                     __end_of___fltol:
  4075                           	callstack 0
  4076                           
  4077 ;; *************** function ___flsub *****************
  4078 ;; Defined at:
  4079 ;;		line 245 in file "D:\XC8\pic\sources\c99\common\sprcadd.c"
  4080 ;; Parameters:    Size  Location     Type
  4081 ;;  b               4   39[COMRAM] long 
  4082 ;;  a               4   43[COMRAM] long 
  4083 ;; Auto vars:     Size  Location     Type
  4084 ;;		None
  4085 ;; Return value:  Size  Location     Type
  4086 ;;                  4   39[COMRAM] long 
  4087 ;; Registers used:
  4088 ;;		wreg, status,2, status,0, cstack
  4089 ;; Tracked objects:
  4090 ;;		On entry : 0/0
  4091 ;;		On exit  : 0/0
  4092 ;;		Unchanged: 0/0
  4093 ;; Data sizes:     COMRAM   BANK5   BANK6   BANK7   BANK8   BANK9  BANK10  BANK11  BANK12  BANK13  BANK14  BANK15  BANK1
      +6  BANK17  BANK18  BANK19  BANK20  BANK21  BANK22  BANK23  BANK24  BANK25  BANK26  BANK27  BANK28  BANK29  BANK30  BANK3
      +1  BANK32  BANK33  BANK34  BANK35  BANK36
  4094 ;;      Params:         8       0       0       0       0       0       0       0       0       0       0       0       
      +0       0       0       0       0       0       0       0       0       0       0       0       0       0       0       
      +0       0       0       0       0       0
  4095 ;;      Locals:         0       0       0       0       0       0       0       0       0       0       0       0       
      +0       0       0       0       0       0       0       0       0       0       0       0       0       0       0       
      +0       0       0       0       0       0
  4096 ;;      Temps:          0       0       0       0       0       0       0       0       0       0       0       0       
      +0       0       0       0       0       0       0       0       0       0       0       0       0       0       0       
      +0       0       0       0       0       0
  4097 ;;      Totals:         8       0       0       0       0       0       0       0       0       0       0       0       
      +0       0       0       0       0       0       0       0       0       0       0       0       0       0       0       
      +0       0       0       0       0       0
  4098 ;;Total ram usage:        8 bytes
  4099 ;; Hardware stack levels used: 1
  4100 ;; Hardware stack levels required when called: 1
  4101 ;; This function calls:
  4102 ;;		___fladd
  4103 ;; This function is called by:
  4104 ;;		_efgtoa
  4105 ;; This function uses a non-reentrant model
  4106 ;;
  4107                           
  4108                           	psect	text16
  4109   004A16                     __ptext16:
  4110                           	callstack 0
  4111   004A16                     ___flsub:
  4112                           	callstack 120
  4113   004A16  0E00               	movlw	0
  4114   004A18  1A2C               	xorwf	___flsub@a^(0+1280),f,c
  4115   004A1A  0E00               	movlw	0
  4116   004A1C  1A2D               	xorwf	(___flsub@a+1)^(0+1280),f,c
  4117   004A1E  0E00               	movlw	0
  4118   004A20  1A2E               	xorwf	(___flsub@a+2)^(0+1280),f,c
  4119   004A22  0E80               	movlw	128
  4120   004A24  1A2F               	xorwf	(___flsub@a+3)^(0+1280),f,c
  4121   004A26  C528  F501         	movff	___flsub@b,___fladd@b
  4122   004A2A  C529  F502         	movff	___flsub@b+1,___fladd@b+1
  4123   004A2E  C52A  F503         	movff	___flsub@b+2,___fladd@b+2
  4124   004A32  C52B  F504         	movff	___flsub@b+3,___fladd@b+3
  4125   004A36  C52C  F505         	movff	___flsub@a,___fladd@a
  4126   004A3A  C52D  F506         	movff	___flsub@a+1,___fladd@a+1
  4127   004A3E  C52E  F507         	movff	___flsub@a+2,___fladd@a+2
  4128   004A42  C52F  F508         	movff	___flsub@a+3,___fladd@a+3
  4129   004A46  EC06  F018         	call	___fladd	;wreg free
  4130   004A4A  C501  F528         	movff	?___fladd,?___flsub
  4131   004A4E  C502  F529         	movff	?___fladd+1,?___flsub+1
  4132   004A52  C503  F52A         	movff	?___fladd+2,?___flsub+2
  4133   004A56  C504  F52B         	movff	?___fladd+3,?___flsub+3
  4134   004A5A  0012               	return		;funcret
  4135   004A5C                     __end_of___flsub:
  4136                           	callstack 0
  4137                           
  4138 ;; *************** function ___fladd *****************
  4139 ;; Defined at:
  4140 ;;		line 10 in file "D:\XC8\pic\sources\c99\common\sprcadd.c"
  4141 ;; Parameters:    Size  Location     Type
  4142 ;;  b               4    0[COMRAM] long 
  4143 ;;  a               4    4[COMRAM] long 
  4144 ;; Auto vars:     Size  Location     Type
  4145 ;;  grs             1   15[COMRAM] unsigned char 
  4146 ;;  bexp            1   14[COMRAM] unsigned char 
  4147 ;;  aexp            1   13[COMRAM] unsigned char 
  4148 ;;  signs           1   12[COMRAM] unsigned char 
  4149 ;; Return value:  Size  Location     Type
  4150 ;;                  4    0[COMRAM] unsigned char 
  4151 ;; Registers used:
  4152 ;;		wreg, status,2, status,0
  4153 ;; Tracked objects:
  4154 ;;		On entry : 0/0
  4155 ;;		On exit  : 0/0
  4156 ;;		Unchanged: 0/0
  4157 ;; Data sizes:     COMRAM   BANK5   BANK6   BANK7   BANK8   BANK9  BANK10  BANK11  BANK12  BANK13  BANK14  BANK15  BANK1
      +6  BANK17  BANK18  BANK19  BANK20  BANK21  BANK22  BANK23  BANK24  BANK25  BANK26  BANK27  BANK28  BANK29  BANK30  BANK3
      +1  BANK32  BANK33  BANK34  BANK35  BANK36
  4158 ;;      Params:         8       0       0       0       0       0       0       0       0       0       0       0       
      +0       0       0       0       0       0       0       0       0       0       0       0       0       0       0       
      +0       0       0       0       0       0
  4159 ;;      Locals:         4       0       0       0       0       0       0       0       0       0       0       0       
      +0       0       0       0       0       0       0       0       0       0       0       0       0       0       0       
      +0       0       0       0       0       0
  4160 ;;      Temps:          4       0       0       0       0       0       0       0       0       0       0       0       
      +0       0       0       0       0       0       0       0       0       0       0       0       0       0       0       
      +0       0       0       0       0       0
  4161 ;;      Totals:        16       0       0       0       0       0       0       0       0       0       0       0       
      +0       0       0       0       0       0       0       0       0       0       0       0       0       0       0       
      +0       0       0       0       0       0
  4162 ;;Total ram usage:       16 bytes
  4163 ;; Hardware stack levels used: 1
  4164 ;; This function calls:
  4165 ;;		Nothing
  4166 ;; This function is called by:
  4167 ;;		___flsub
  4168 ;;		_efgtoa
  4169 ;; This function uses a non-reentrant model
  4170 ;;
  4171                           
  4172                           	psect	text17
  4173   00300C                     __ptext17:
  4174                           	callstack 0
  4175   00300C                     ___fladd:
  4176                           	callstack 120
  4177   00300C  5004               	movf	(___fladd@b+3)^(0+1280),w,c
  4178   00300E  0B80               	andlw	128
  4179   003010  6E0D               	movwf	___fladd@signs^(0+1280),c
  4180   003012  5004               	movf	(___fladd@b+3)^(0+1280),w,c
  4181   003014  2404               	addwf	(___fladd@b+3)^(0+1280),w,c
  4182   003016  6E0F               	movwf	___fladd@bexp^(0+1280),c
  4183   003018  AE03               	btfss	(___fladd@b+2)^(0+1280),7,c
  4184   00301A  EF11  F018         	goto	i2u175_41
  4185   00301E  EF13  F018         	goto	i2u175_40
  4186   003022                     i2u175_41:
  4187   003022  EF14  F018         	goto	i2l2299
  4188   003026                     i2u175_40:
  4189   003026  800F               	bsf	___fladd@bexp^(0+1280),0,c
  4190   003028                     i2l2299:
  4191   003028  500F               	movf	___fladd@bexp^(0+1280),w,c
  4192   00302A  B4D8               	btfsc	status,2,c
  4193   00302C  EF1A  F018         	goto	i2u176_41
  4194   003030  EF1C  F018         	goto	i2u176_40
  4195   003034                     i2u176_41:
  4196   003034  EF31  F018         	goto	i2l2309
  4197   003038                     i2u176_40:
  4198   003038  280F               	incf	___fladd@bexp^(0+1280),w,c
  4199   00303A  A4D8               	btfss	status,2,c
  4200   00303C  EF22  F018         	goto	i2u177_41
  4201   003040  EF24  F018         	goto	i2u177_40
  4202   003044                     i2u177_41:
  4203   003044  EF2C  F018         	goto	i2l2305
  4204   003048                     i2u177_40:
  4205   003048  0E00               	movlw	0
  4206   00304A  6E01               	movwf	___fladd@b^(0+1280),c
  4207   00304C  0E00               	movlw	0
  4208   00304E  6E02               	movwf	(___fladd@b+1)^(0+1280),c
  4209   003050  0E00               	movlw	0
  4210   003052  6E03               	movwf	(___fladd@b+2)^(0+1280),c
  4211   003054  0E00               	movlw	0
  4212   003056  6E04               	movwf	(___fladd@b+3)^(0+1280),c
  4213   003058                     i2l2305:
  4214   003058  8E03               	bsf	(___fladd@b+2)^(0+1280),7,c
  4215   00305A  0E00               	movlw	0
  4216   00305C  6E04               	movwf	(___fladd@b+3)^(0+1280),c
  4217   00305E  EF39  F018         	goto	i2l2311
  4218   003062                     i2l2309:
  4219   003062  0E00               	movlw	0
  4220   003064  6E01               	movwf	___fladd@b^(0+1280),c
  4221   003066  0E00               	movlw	0
  4222   003068  6E02               	movwf	(___fladd@b+1)^(0+1280),c
  4223   00306A  0E00               	movlw	0
  4224   00306C  6E03               	movwf	(___fladd@b+2)^(0+1280),c
  4225   00306E  0E00               	movlw	0
  4226   003070  6E04               	movwf	(___fladd@b+3)^(0+1280),c
  4227   003072                     i2l2311:
  4228   003072  5008               	movf	(___fladd@a+3)^(0+1280),w,c
  4229   003074  0B80               	andlw	128
  4230   003076  6E0E               	movwf	___fladd@aexp^(0+1280),c
  4231   003078  500D               	movf	___fladd@signs^(0+1280),w,c
  4232   00307A  180E               	xorwf	___fladd@aexp^(0+1280),w,c
  4233   00307C  B4D8               	btfsc	status,2,c
  4234   00307E  EF43  F018         	goto	i2u178_41
  4235   003082  EF45  F018         	goto	i2u178_40
  4236   003086                     i2u178_41:
  4237   003086  EF46  F018         	goto	i2l2317
  4238   00308A                     i2u178_40:
  4239   00308A  8C0D               	bsf	___fladd@signs^(0+1280),6,c
  4240   00308C                     i2l2317:
  4241   00308C  5008               	movf	(___fladd@a+3)^(0+1280),w,c
  4242   00308E  2408               	addwf	(___fladd@a+3)^(0+1280),w,c
  4243   003090  6E0E               	movwf	___fladd@aexp^(0+1280),c
  4244   003092  AE07               	btfss	(___fladd@a+2)^(0+1280),7,c
  4245   003094  EF4E  F018         	goto	i2u179_41
  4246   003098  EF50  F018         	goto	i2u179_40
  4247   00309C                     i2u179_41:
  4248   00309C  EF51  F018         	goto	i2l2323
  4249   0030A0                     i2u179_40:
  4250   0030A0  800E               	bsf	___fladd@aexp^(0+1280),0,c
  4251   0030A2                     i2l2323:
  4252   0030A2  500E               	movf	___fladd@aexp^(0+1280),w,c
  4253   0030A4  B4D8               	btfsc	status,2,c
  4254   0030A6  EF57  F018         	goto	i2u180_41
  4255   0030AA  EF59  F018         	goto	i2u180_40
  4256   0030AE                     i2u180_41:
  4257   0030AE  EF6E  F018         	goto	i2l2333
  4258   0030B2                     i2u180_40:
  4259   0030B2  280E               	incf	___fladd@aexp^(0+1280),w,c
  4260   0030B4  A4D8               	btfss	status,2,c
  4261   0030B6  EF5F  F018         	goto	i2u181_41
  4262   0030BA  EF61  F018         	goto	i2u181_40
  4263   0030BE                     i2u181_41:
  4264   0030BE  EF69  F018         	goto	i2l2329
  4265   0030C2                     i2u181_40:
  4266   0030C2  0E00               	movlw	0
  4267   0030C4  6E05               	movwf	___fladd@a^(0+1280),c
  4268   0030C6  0E00               	movlw	0
  4269   0030C8  6E06               	movwf	(___fladd@a+1)^(0+1280),c
  4270   0030CA  0E00               	movlw	0
  4271   0030CC  6E07               	movwf	(___fladd@a+2)^(0+1280),c
  4272   0030CE  0E00               	movlw	0
  4273   0030D0  6E08               	movwf	(___fladd@a+3)^(0+1280),c
  4274   0030D2                     i2l2329:
  4275   0030D2  8E07               	bsf	(___fladd@a+2)^(0+1280),7,c
  4276   0030D4  0E00               	movlw	0
  4277   0030D6  6E08               	movwf	(___fladd@a+3)^(0+1280),c
  4278   0030D8  EF76  F018         	goto	i2l2335
  4279   0030DC                     i2l2333:
  4280   0030DC  0E00               	movlw	0
  4281   0030DE  6E05               	movwf	___fladd@a^(0+1280),c
  4282   0030E0  0E00               	movlw	0
  4283   0030E2  6E06               	movwf	(___fladd@a+1)^(0+1280),c
  4284   0030E4  0E00               	movlw	0
  4285   0030E6  6E07               	movwf	(___fladd@a+2)^(0+1280),c
  4286   0030E8  0E00               	movlw	0
  4287   0030EA  6E08               	movwf	(___fladd@a+3)^(0+1280),c
  4288   0030EC                     i2l2335:
  4289   0030EC  500F               	movf	___fladd@bexp^(0+1280),w,c
  4290   0030EE  5C0E               	subwf	___fladd@aexp^(0+1280),w,c
  4291   0030F0  B0D8               	btfsc	status,0,c
  4292   0030F2  EF7D  F018         	goto	i2u182_41
  4293   0030F6  EF7F  F018         	goto	i2u182_40
  4294   0030FA                     i2u182_41:
  4295   0030FA  EFA6  F018         	goto	i2l2371
  4296   0030FE                     i2u182_40:
  4297   0030FE  AC0D               	btfss	___fladd@signs^(0+1280),6,c
  4298   003100  EF84  F018         	goto	i2u183_41
  4299   003104  EF86  F018         	goto	i2u183_40
  4300   003108                     i2u183_41:
  4301   003108  EF88  F018         	goto	i2l2341
  4302   00310C                     i2u183_40:
  4303   00310C  0E80               	movlw	128
  4304   00310E  1A0D               	xorwf	___fladd@signs^(0+1280),f,c
  4305   003110                     i2l2341:
  4306   003110  C50F  F510         	movff	___fladd@bexp,___fladd@grs
  4307   003114  C50E  F50F         	movff	___fladd@aexp,___fladd@bexp
  4308   003118  C510  F50E         	movff	___fladd@grs,___fladd@aexp
  4309   00311C  C501  F510         	movff	___fladd@b,___fladd@grs
  4310   003120  C505  F501         	movff	___fladd@a,___fladd@b
  4311   003124  C510  F505         	movff	___fladd@grs,___fladd@a
  4312   003128  C502  F510         	movff	___fladd@b+1,___fladd@grs
  4313   00312C  C506  F502         	movff	___fladd@a+1,___fladd@b+1
  4314   003130  C510  F506         	movff	___fladd@grs,___fladd@a+1
  4315   003134  C503  F510         	movff	___fladd@b+2,___fladd@grs
  4316   003138  C507  F503         	movff	___fladd@a+2,___fladd@b+2
  4317   00313C  C510  F507         	movff	___fladd@grs,___fladd@a+2
  4318   003140  C504  F510         	movff	___fladd@b+3,___fladd@grs
  4319   003144  C508  F504         	movff	___fladd@a+3,___fladd@b+3
  4320   003148  C510  F508         	movff	___fladd@grs,___fladd@a+3
  4321   00314C                     i2l2371:
  4322   00314C  0E00               	movlw	0
  4323   00314E  6E10               	movwf	___fladd@grs^(0+1280),c
  4324   003150  500F               	movf	___fladd@bexp^(0+1280),w,c
  4325   003152  C50E  F509         	movff	___fladd@aexp,??___fladd
  4326   003156  6A0A               	clrf	(??___fladd+1)^(0+1280),c
  4327   003158  5E09               	subwf	??___fladd^(0+1280),f,c
  4328   00315A  0E00               	movlw	0
  4329   00315C  5A0A               	subwfb	(??___fladd+1)^(0+1280),f,c
  4330   00315E  BE0A               	btfsc	(??___fladd+1)^(0+1280),7,c
  4331   003160  EFBB  F018         	goto	i2u184_41
  4332   003164  500A               	movf	(??___fladd+1)^(0+1280),w,c
  4333   003166  E109               	bnz	i2u184_40
  4334   003168  0E1A               	movlw	26
  4335   00316A  5C09               	subwf	??___fladd^(0+1280),w,c
  4336   00316C  A0D8               	btfss	status,0,c
  4337   00316E  EFBB  F018         	goto	i2u184_41
  4338   003172  EFBD  F018         	goto	i2u184_40
  4339   003176                     i2u184_41:
  4340   003176  EFF4  F018         	goto	i2l726
  4341   00317A                     i2u184_40:
  4342   00317A  5001               	movf	___fladd@b^(0+1280),w,c
  4343   00317C  1002               	iorwf	(___fladd@b+1)^(0+1280),w,c
  4344   00317E  1003               	iorwf	(___fladd@b+2)^(0+1280),w,c
  4345   003180  1004               	iorwf	(___fladd@b+3)^(0+1280),w,c
  4346   003182  A4D8               	btfss	status,2,c
  4347   003184  EFC6  F018         	goto	i2u185_41
  4348   003188  EFC9  F018         	goto	i2u185_40
  4349   00318C                     i2u185_41:
  4350   00318C  0E01               	movlw	1
  4351   00318E  EFCA  F018         	goto	i2u186_40
  4352   003192                     i2u185_40:
  4353   003192  0E00               	movlw	0
  4354   003194                     i2u186_40:
  4355   003194  6E10               	movwf	___fladd@grs^(0+1280),c
  4356   003196  0E00               	movlw	0
  4357   003198  6E01               	movwf	___fladd@b^(0+1280),c
  4358   00319A  0E00               	movlw	0
  4359   00319C  6E02               	movwf	(___fladd@b+1)^(0+1280),c
  4360   00319E  0E00               	movlw	0
  4361   0031A0  6E03               	movwf	(___fladd@b+2)^(0+1280),c
  4362   0031A2  0E00               	movlw	0
  4363   0031A4  6E04               	movwf	(___fladd@b+3)^(0+1280),c
  4364   0031A6  C50E  F50F         	movff	___fladd@aexp,___fladd@bexp
  4365   0031AA  EFFD  F018         	goto	i2l725
  4366   0031AE                     i2l727:
  4367   0031AE  A010               	btfss	___fladd@grs^(0+1280),0,c
  4368   0031B0  EFDC  F018         	goto	i2u187_41
  4369   0031B4  EFDE  F018         	goto	i2u187_40
  4370   0031B8                     i2u187_41:
  4371   0031B8  EFE4  F018         	goto	i2l2383
  4372   0031BC                     i2u187_40:
  4373   0031BC  90D8               	bcf	status,0,c
  4374   0031BE  3010               	rrcf	___fladd@grs^(0+1280),w,c
  4375   0031C0  0901               	iorlw	1
  4376   0031C2  6E10               	movwf	___fladd@grs^(0+1280),c
  4377   0031C4  EFE6  F018         	goto	i2l2385
  4378   0031C8                     i2l2383:
  4379   0031C8  90D8               	bcf	status,0,c
  4380   0031CA  3210               	rrcf	___fladd@grs^(0+1280),f,c
  4381   0031CC                     i2l2385:
  4382   0031CC  A001               	btfss	___fladd@b^(0+1280),0,c
  4383   0031CE  EFEB  F018         	goto	i2u188_41
  4384   0031D2  EFED  F018         	goto	i2u188_40
  4385   0031D6                     i2u188_41:
  4386   0031D6  EFEE  F018         	goto	i2l2389
  4387   0031DA                     i2u188_40:
  4388   0031DA  8E10               	bsf	___fladd@grs^(0+1280),7,c
  4389   0031DC                     i2l2389:
  4390   0031DC  3404               	rlcf	(___fladd@b+3)^(0+1280),w,c
  4391   0031DE  3204               	rrcf	(___fladd@b+3)^(0+1280),f,c
  4392   0031E0  3203               	rrcf	(___fladd@b+2)^(0+1280),f,c
  4393   0031E2  3202               	rrcf	(___fladd@b+1)^(0+1280),f,c
  4394   0031E4  3201               	rrcf	___fladd@b^(0+1280),f,c
  4395   0031E6  2A0F               	incf	___fladd@bexp^(0+1280),f,c
  4396   0031E8                     i2l726:
  4397   0031E8  500E               	movf	___fladd@aexp^(0+1280),w,c
  4398   0031EA  5C0F               	subwf	___fladd@bexp^(0+1280),w,c
  4399   0031EC  A0D8               	btfss	status,0,c
  4400   0031EE  EFFB  F018         	goto	i2u189_41
  4401   0031F2  EFFD  F018         	goto	i2u189_40
  4402   0031F6                     i2u189_41:
  4403   0031F6  EFD7  F018         	goto	i2l727
  4404   0031FA                     i2u189_40:
  4405   0031FA                     i2l725:
  4406   0031FA  BC0D               	btfsc	___fladd@signs^(0+1280),6,c
  4407   0031FC  EF02  F019         	goto	i2u190_41
  4408   003200  EF04  F019         	goto	i2u190_40
  4409   003204                     i2u190_41:
  4410   003204  EF44  F019         	goto	i2l2417
  4411   003208                     i2u190_40:
  4412   003208  500F               	movf	___fladd@bexp^(0+1280),w,c
  4413   00320A  A4D8               	btfss	status,2,c
  4414   00320C  EF0A  F019         	goto	i2u191_41
  4415   003210  EF0C  F019         	goto	i2u191_40
  4416   003214                     i2u191_41:
  4417   003214  EF16  F019         	goto	i2l2399
  4418   003218                     i2u191_40:
  4419   003218  0E00               	movlw	0
  4420   00321A  6E01               	movwf	?___fladd^(0+1280),c
  4421   00321C  0E00               	movlw	0
  4422   00321E  6E02               	movwf	(?___fladd+1)^(0+1280),c
  4423   003220  0E00               	movlw	0
  4424   003222  6E03               	movwf	(?___fladd+2)^(0+1280),c
  4425   003224  0E00               	movlw	0
  4426   003226  6E04               	movwf	(?___fladd+3)^(0+1280),c
  4427   003228  EF65  F01A         	goto	i2l734
  4428   00322C                     i2l2399:
  4429   00322C  5005               	movf	___fladd@a^(0+1280),w,c
  4430   00322E  2601               	addwf	___fladd@b^(0+1280),f,c
  4431   003230  5006               	movf	(___fladd@a+1)^(0+1280),w,c
  4432   003232  2202               	addwfc	(___fladd@b+1)^(0+1280),f,c
  4433   003234  5007               	movf	(___fladd@a+2)^(0+1280),w,c
  4434   003236  2203               	addwfc	(___fladd@b+2)^(0+1280),f,c
  4435   003238  5008               	movf	(___fladd@a+3)^(0+1280),w,c
  4436   00323A  2204               	addwfc	(___fladd@b+3)^(0+1280),f,c
  4437   00323C  A004               	btfss	(___fladd@b+3)^(0+1280),0,c
  4438   00323E  EF23  F019         	goto	i2u192_41
  4439   003242  EF25  F019         	goto	i2u192_40
  4440   003246                     i2u192_41:
  4441   003246  EFD1  F019         	goto	i2l2453
  4442   00324A                     i2u192_40:
  4443   00324A  A010               	btfss	___fladd@grs^(0+1280),0,c
  4444   00324C  EF2A  F019         	goto	i2u193_41
  4445   003250  EF2C  F019         	goto	i2u193_40
  4446   003254                     i2u193_41:
  4447   003254  EF32  F019         	goto	i2l2407
  4448   003258                     i2u193_40:
  4449   003258  90D8               	bcf	status,0,c
  4450   00325A  3010               	rrcf	___fladd@grs^(0+1280),w,c
  4451   00325C  0901               	iorlw	1
  4452   00325E  6E10               	movwf	___fladd@grs^(0+1280),c
  4453   003260  EF34  F019         	goto	i2l2409
  4454   003264                     i2l2407:
  4455   003264  90D8               	bcf	status,0,c
  4456   003266  3210               	rrcf	___fladd@grs^(0+1280),f,c
  4457   003268                     i2l2409:
  4458   003268  A001               	btfss	___fladd@b^(0+1280),0,c
  4459   00326A  EF39  F019         	goto	i2u194_41
  4460   00326E  EF3B  F019         	goto	i2u194_40
  4461   003272                     i2u194_41:
  4462   003272  EF3C  F019         	goto	i2l2413
  4463   003276                     i2u194_40:
  4464   003276  8E10               	bsf	___fladd@grs^(0+1280),7,c
  4465   003278                     i2l2413:
  4466   003278  3404               	rlcf	(___fladd@b+3)^(0+1280),w,c
  4467   00327A  3204               	rrcf	(___fladd@b+3)^(0+1280),f,c
  4468   00327C  3203               	rrcf	(___fladd@b+2)^(0+1280),f,c
  4469   00327E  3202               	rrcf	(___fladd@b+1)^(0+1280),f,c
  4470   003280  3201               	rrcf	___fladd@b^(0+1280),f,c
  4471   003282  2A0F               	incf	___fladd@bexp^(0+1280),f,c
  4472   003284  EFD1  F019         	goto	i2l2453
  4473   003288                     i2l2417:
  4474   003288  5005               	movf	___fladd@a^(0+1280),w,c
  4475   00328A  5C01               	subwf	___fladd@b^(0+1280),w,c
  4476   00328C  5006               	movf	(___fladd@a+1)^(0+1280),w,c
  4477   00328E  5802               	subwfb	(___fladd@b+1)^(0+1280),w,c
  4478   003290  5007               	movf	(___fladd@a+2)^(0+1280),w,c
  4479   003292  5803               	subwfb	(___fladd@b+2)^(0+1280),w,c
  4480   003294  5004               	movf	(___fladd@b+3)^(0+1280),w,c
  4481   003296  0A80               	xorlw	128
  4482   003298  6E09               	movwf	??___fladd^(0+1280),c
  4483   00329A  5008               	movf	(___fladd@a+3)^(0+1280),w,c
  4484   00329C  0A80               	xorlw	128
  4485   00329E  5809               	subwfb	??___fladd^(0+1280),w,c
  4486   0032A0  B0D8               	btfsc	status,0,c
  4487   0032A2  EF55  F019         	goto	i2u195_41
  4488   0032A6  EF57  F019         	goto	i2u195_40
  4489   0032AA                     i2u195_41:
  4490   0032AA  EF82  F019         	goto	i2l2427
  4491   0032AE                     i2u195_40:
  4492   0032AE  5001               	movf	___fladd@b^(0+1280),w,c
  4493   0032B0  5C05               	subwf	___fladd@a^(0+1280),w,c
  4494   0032B2  6E09               	movwf	??___fladd^(0+1280),c
  4495   0032B4  5002               	movf	(___fladd@b+1)^(0+1280),w,c
  4496   0032B6  5806               	subwfb	(___fladd@a+1)^(0+1280),w,c
  4497   0032B8  6E0A               	movwf	(??___fladd+1)^(0+1280),c
  4498   0032BA  5003               	movf	(___fladd@b+2)^(0+1280),w,c
  4499   0032BC  5807               	subwfb	(___fladd@a+2)^(0+1280),w,c
  4500   0032BE  6E0B               	movwf	(??___fladd+2)^(0+1280),c
  4501   0032C0  5004               	movf	(___fladd@b+3)^(0+1280),w,c
  4502   0032C2  5808               	subwfb	(___fladd@a+3)^(0+1280),w,c
  4503   0032C4  6E0C               	movwf	(??___fladd+3)^(0+1280),c
  4504   0032C6  0EFF               	movlw	255
  4505   0032C8  2409               	addwf	??___fladd^(0+1280),w,c
  4506   0032CA  6E01               	movwf	___fladd@b^(0+1280),c
  4507   0032CC  0EFF               	movlw	255
  4508   0032CE  200A               	addwfc	(??___fladd+1)^(0+1280),w,c
  4509   0032D0  6E02               	movwf	(___fladd@b+1)^(0+1280),c
  4510   0032D2  0EFF               	movlw	255
  4511   0032D4  200B               	addwfc	(??___fladd+2)^(0+1280),w,c
  4512   0032D6  6E03               	movwf	(___fladd@b+2)^(0+1280),c
  4513   0032D8  0EFF               	movlw	255
  4514   0032DA  200C               	addwfc	(??___fladd+3)^(0+1280),w,c
  4515   0032DC  6E04               	movwf	(___fladd@b+3)^(0+1280),c
  4516   0032DE  0E80               	movlw	128
  4517   0032E0  1A0D               	xorwf	___fladd@signs^(0+1280),f,c
  4518   0032E2  6C10               	negf	___fladd@grs^(0+1280),c
  4519   0032E4  5010               	movf	___fladd@grs^(0+1280),w,c
  4520   0032E6  A4D8               	btfss	status,2,c
  4521   0032E8  EF78  F019         	goto	i2u196_41
  4522   0032EC  EF7A  F019         	goto	i2u196_40
  4523   0032F0                     i2u196_41:
  4524   0032F0  EF8A  F019         	goto	i2l742
  4525   0032F4                     i2u196_40:
  4526   0032F4  0E01               	movlw	1
  4527   0032F6  2601               	addwf	___fladd@b^(0+1280),f,c
  4528   0032F8  0E00               	movlw	0
  4529   0032FA  2202               	addwfc	(___fladd@b+1)^(0+1280),f,c
  4530   0032FC  2203               	addwfc	(___fladd@b+2)^(0+1280),f,c
  4531   0032FE  2204               	addwfc	(___fladd@b+3)^(0+1280),f,c
  4532   003300  EF8A  F019         	goto	i2l742
  4533   003304                     i2l2427:
  4534   003304  5005               	movf	___fladd@a^(0+1280),w,c
  4535   003306  5E01               	subwf	___fladd@b^(0+1280),f,c
  4536   003308  5006               	movf	(___fladd@a+1)^(0+1280),w,c
  4537   00330A  5A02               	subwfb	(___fladd@b+1)^(0+1280),f,c
  4538   00330C  5007               	movf	(___fladd@a+2)^(0+1280),w,c
  4539   00330E  5A03               	subwfb	(___fladd@b+2)^(0+1280),f,c
  4540   003310  5008               	movf	(___fladd@a+3)^(0+1280),w,c
  4541   003312  5A04               	subwfb	(___fladd@b+3)^(0+1280),f,c
  4542   003314                     i2l742:
  4543   003314  5001               	movf	___fladd@b^(0+1280),w,c
  4544   003316  1002               	iorwf	(___fladd@b+1)^(0+1280),w,c
  4545   003318  1003               	iorwf	(___fladd@b+2)^(0+1280),w,c
  4546   00331A  1004               	iorwf	(___fladd@b+3)^(0+1280),w,c
  4547   00331C  A4D8               	btfss	status,2,c
  4548   00331E  EF93  F019         	goto	i2u197_41
  4549   003322  EF95  F019         	goto	i2u197_40
  4550   003326                     i2u197_41:
  4551   003326  EFCA  F019         	goto	i2l2451
  4552   00332A                     i2u197_40:
  4553   00332A  5010               	movf	___fladd@grs^(0+1280),w,c
  4554   00332C  A4D8               	btfss	status,2,c
  4555   00332E  EF9B  F019         	goto	i2u198_41
  4556   003332  EF9D  F019         	goto	i2u198_40
  4557   003336                     i2u198_41:
  4558   003336  EFCA  F019         	goto	i2l2451
  4559   00333A                     i2u198_40:
  4560   00333A  0E00               	movlw	0
  4561   00333C  6E01               	movwf	?___fladd^(0+1280),c
  4562   00333E  0E00               	movlw	0
  4563   003340  6E02               	movwf	(?___fladd+1)^(0+1280),c
  4564   003342  0E00               	movlw	0
  4565   003344  6E03               	movwf	(?___fladd+2)^(0+1280),c
  4566   003346  0E00               	movlw	0
  4567   003348  6E04               	movwf	(?___fladd+3)^(0+1280),c
  4568   00334A  EF65  F01A         	goto	i2l734
  4569   00334E                     i2l2435:
  4570   00334E  90D8               	bcf	status,0,c
  4571   003350  3601               	rlcf	___fladd@b^(0+1280),f,c
  4572   003352  3602               	rlcf	(___fladd@b+1)^(0+1280),f,c
  4573   003354  3603               	rlcf	(___fladd@b+2)^(0+1280),f,c
  4574   003356  3604               	rlcf	(___fladd@b+3)^(0+1280),f,c
  4575   003358  AE10               	btfss	___fladd@grs^(0+1280),7,c
  4576   00335A  EFB1  F019         	goto	i2u199_41
  4577   00335E  EFB3  F019         	goto	i2u199_40
  4578   003362                     i2u199_41:
  4579   003362  EFB4  F019         	goto	i2l2441
  4580   003366                     i2u199_40:
  4581   003366  8001               	bsf	___fladd@b^(0+1280),0,c
  4582   003368                     i2l2441:
  4583   003368  A010               	btfss	___fladd@grs^(0+1280),0,c
  4584   00336A  EFB9  F019         	goto	i2u200_41
  4585   00336E  EFBB  F019         	goto	i2u200_40
  4586   003372                     i2u200_41:
  4587   003372  EFBF  F019         	goto	i2l2445
  4588   003376                     i2u200_40:
  4589   003376  80D8               	bsf	status,0,c
  4590   003378  3610               	rlcf	___fladd@grs^(0+1280),f,c
  4591   00337A  EFC1  F019         	goto	i2l2447
  4592   00337E                     i2l2445:
  4593   00337E  90D8               	bcf	status,0,c
  4594   003380  3610               	rlcf	___fladd@grs^(0+1280),f,c
  4595   003382                     i2l2447:
  4596   003382  500F               	movf	___fladd@bexp^(0+1280),w,c
  4597   003384  B4D8               	btfsc	status,2,c
  4598   003386  EFC7  F019         	goto	i2u201_41
  4599   00338A  EFC9  F019         	goto	i2u201_40
  4600   00338E                     i2u201_41:
  4601   00338E  EFCA  F019         	goto	i2l2451
  4602   003392                     i2u201_40:
  4603   003392  060F               	decf	___fladd@bexp^(0+1280),f,c
  4604   003394                     i2l2451:
  4605   003394  AE03               	btfss	(___fladd@b+2)^(0+1280),7,c
  4606   003396  EFCF  F019         	goto	i2u202_41
  4607   00339A  EFD1  F019         	goto	i2u202_40
  4608   00339E                     i2u202_41:
  4609   00339E  EFA7  F019         	goto	i2l2435
  4610   0033A2                     i2u202_40:
  4611   0033A2                     i2l2453:
  4612   0033A2  0E00               	movlw	0
  4613   0033A4  6E0E               	movwf	___fladd@aexp^(0+1280),c
  4614   0033A6  AE10               	btfss	___fladd@grs^(0+1280),7,c
  4615   0033A8  EFD8  F019         	goto	i2u203_41
  4616   0033AC  EFDA  F019         	goto	i2u203_40
  4617   0033B0                     i2u203_41:
  4618   0033B0  EFF2  F019         	goto	i2l751
  4619   0033B4                     i2u203_40:
  4620   0033B4  C510  F509         	movff	___fladd@grs,??___fladd
  4621   0033B8  0E7F               	movlw	127
  4622   0033BA  1609               	andwf	??___fladd^(0+1280),f,c
  4623   0033BC  B4D8               	btfsc	status,2,c
  4624   0033BE  EFE3  F019         	goto	i2u204_41
  4625   0033C2  EFE5  F019         	goto	i2u204_40
  4626   0033C6                     i2u204_41:
  4627   0033C6  EFE9  F019         	goto	i2l752
  4628   0033CA                     i2u204_40:
  4629   0033CA                     i2l2459:
  4630   0033CA  0E01               	movlw	1
  4631   0033CC  6E0E               	movwf	___fladd@aexp^(0+1280),c
  4632   0033CE  EFF2  F019         	goto	i2l751
  4633   0033D2                     i2l752:
  4634   0033D2  A001               	btfss	___fladd@b^(0+1280),0,c
  4635   0033D4  EFEE  F019         	goto	i2u205_41
  4636   0033D8  EFF0  F019         	goto	i2u205_40
  4637   0033DC                     i2u205_41:
  4638   0033DC  EFF2  F019         	goto	i2l751
  4639   0033E0                     i2u205_40:
  4640   0033E0  EFE5  F019         	goto	i2l2459
  4641   0033E4                     i2l751:
  4642   0033E4  500E               	movf	___fladd@aexp^(0+1280),w,c
  4643   0033E6  B4D8               	btfsc	status,2,c
  4644   0033E8  EFF8  F019         	goto	i2u206_41
  4645   0033EC  EFFA  F019         	goto	i2u206_40
  4646   0033F0                     i2u206_41:
  4647   0033F0  EF25  F01A         	goto	i2l2471
  4648   0033F4                     i2u206_40:
  4649   0033F4  0E01               	movlw	1
  4650   0033F6  2601               	addwf	___fladd@b^(0+1280),f,c
  4651   0033F8  0E00               	movlw	0
  4652   0033FA  2202               	addwfc	(___fladd@b+1)^(0+1280),f,c
  4653   0033FC  2203               	addwfc	(___fladd@b+2)^(0+1280),f,c
  4654   0033FE  2204               	addwfc	(___fladd@b+3)^(0+1280),f,c
  4655   003400  A004               	btfss	(___fladd@b+3)^(0+1280),0,c
  4656   003402  EF05  F01A         	goto	i2u207_41
  4657   003406  EF07  F01A         	goto	i2u207_40
  4658   00340A                     i2u207_41:
  4659   00340A  EF25  F01A         	goto	i2l2471
  4660   00340E                     i2u207_40:
  4661   00340E  C501  F509         	movff	___fladd@b,??___fladd
  4662   003412  C502  F50A         	movff	___fladd@b+1,??___fladd+1
  4663   003416  C503  F50B         	movff	___fladd@b+2,??___fladd+2
  4664   00341A  C504  F50C         	movff	___fladd@b+3,??___fladd+3
  4665   00341E  340C               	rlcf	(??___fladd+3)^(0+1280),w,c
  4666   003420  320C               	rrcf	(??___fladd+3)^(0+1280),f,c
  4667   003422  320B               	rrcf	(??___fladd+2)^(0+1280),f,c
  4668   003424  320A               	rrcf	(??___fladd+1)^(0+1280),f,c
  4669   003426  3209               	rrcf	??___fladd^(0+1280),f,c
  4670   003428  C509  F501         	movff	??___fladd,___fladd@b
  4671   00342C  C50A  F502         	movff	??___fladd+1,___fladd@b+1
  4672   003430  C50B  F503         	movff	??___fladd+2,___fladd@b+2
  4673   003434  C50C  F504         	movff	??___fladd+3,___fladd@b+3
  4674   003438  280F               	incf	___fladd@bexp^(0+1280),w,c
  4675   00343A  B4D8               	btfsc	status,2,c
  4676   00343C  EF22  F01A         	goto	i2u208_41
  4677   003440  EF24  F01A         	goto	i2u208_40
  4678   003444                     i2u208_41:
  4679   003444  EF25  F01A         	goto	i2l2471
  4680   003448                     i2u208_40:
  4681   003448  2A0F               	incf	___fladd@bexp^(0+1280),f,c
  4682   00344A                     i2l2471:
  4683   00344A  280F               	incf	___fladd@bexp^(0+1280),w,c
  4684   00344C  B4D8               	btfsc	status,2,c
  4685   00344E  EF2B  F01A         	goto	i2u209_41
  4686   003452  EF2D  F01A         	goto	i2u209_40
  4687   003456                     i2u209_41:
  4688   003456  EF35  F01A         	goto	i2l2475
  4689   00345A                     i2u209_40:
  4690   00345A  500F               	movf	___fladd@bexp^(0+1280),w,c
  4691   00345C  A4D8               	btfss	status,2,c
  4692   00345E  EF33  F01A         	goto	i2u210_41
  4693   003462  EF35  F01A         	goto	i2u210_40
  4694   003466                     i2u210_41:
  4695   003466  EF47  F01A         	goto	i2l2479
  4696   00346A                     i2u210_40:
  4697   00346A                     i2l2475:
  4698   00346A  0E00               	movlw	0
  4699   00346C  6E01               	movwf	___fladd@b^(0+1280),c
  4700   00346E  0E00               	movlw	0
  4701   003470  6E02               	movwf	(___fladd@b+1)^(0+1280),c
  4702   003472  0E00               	movlw	0
  4703   003474  6E03               	movwf	(___fladd@b+2)^(0+1280),c
  4704   003476  0E00               	movlw	0
  4705   003478  6E04               	movwf	(___fladd@b+3)^(0+1280),c
  4706   00347A  500F               	movf	___fladd@bexp^(0+1280),w,c
  4707   00347C  A4D8               	btfss	status,2,c
  4708   00347E  EF43  F01A         	goto	i2u211_41
  4709   003482  EF45  F01A         	goto	i2u211_40
  4710   003486                     i2u211_41:
  4711   003486  EF47  F01A         	goto	i2l2479
  4712   00348A                     i2u211_40:
  4713   00348A  0E00               	movlw	0
  4714   00348C  6E0D               	movwf	___fladd@signs^(0+1280),c
  4715   00348E                     i2l2479:
  4716   00348E  A00F               	btfss	___fladd@bexp^(0+1280),0,c
  4717   003490  EF4C  F01A         	goto	i2u212_41
  4718   003494  EF4E  F01A         	goto	i2u212_40
  4719   003498                     i2u212_41:
  4720   003498  EF51  F01A         	goto	i2l2483
  4721   00349C                     i2u212_40:
  4722   00349C  8E03               	bsf	(___fladd@b+2)^(0+1280),7,c
  4723   00349E  EF52  F01A         	goto	i2l2485
  4724   0034A2                     i2l2483:
  4725   0034A2  9E03               	bcf	(___fladd@b+2)^(0+1280),7,c
  4726   0034A4                     i2l2485:
  4727   0034A4  90D8               	bcf	status,0,c
  4728   0034A6  300F               	rrcf	___fladd@bexp^(0+1280),w,c
  4729   0034A8  6E04               	movwf	(___fladd@b+3)^(0+1280),c
  4730   0034AA  AE0D               	btfss	___fladd@signs^(0+1280),7,c
  4731   0034AC  EF5A  F01A         	goto	i2u213_41
  4732   0034B0  EF5C  F01A         	goto	i2u213_40
  4733   0034B4                     i2u213_41:
  4734   0034B4  EF5D  F01A         	goto	i2l2491
  4735   0034B8                     i2u213_40:
  4736   0034B8  8E04               	bsf	(___fladd@b+3)^(0+1280),7,c
  4737   0034BA                     i2l2491:
  4738   0034BA  C501  F501         	movff	___fladd@b,?___fladd
  4739   0034BE  C502  F502         	movff	___fladd@b+1,?___fladd+1
  4740   0034C2  C503  F503         	movff	___fladd@b+2,?___fladd+2
  4741   0034C6  C504  F504         	movff	___fladd@b+3,?___fladd+3
  4742   0034CA                     i2l734:
  4743   0034CA  0012               	return		;funcret
  4744   0034CC                     __end_of___fladd:
  4745                           	callstack 0
  4746                           
  4747 ;; *************** function ___flneg *****************
  4748 ;; Defined at:
  4749 ;;		line 15 in file "D:\XC8\pic\sources\c99\common\flneg.c"
  4750 ;; Parameters:    Size  Location     Type
  4751 ;;  f1              4    0[COMRAM] unsigned char 
  4752 ;; Auto vars:     Size  Location     Type
  4753 ;;		None
  4754 ;; Return value:  Size  Location     Type
  4755 ;;                  4    0[COMRAM] unsigned char 
  4756 ;; Registers used:
  4757 ;;		wreg, status,2, status,0
  4758 ;; Tracked objects:
  4759 ;;		On entry : 0/0
  4760 ;;		On exit  : 0/0
  4761 ;;		Unchanged: 0/0
  4762 ;; Data sizes:     COMRAM   BANK5   BANK6   BANK7   BANK8   BANK9  BANK10  BANK11  BANK12  BANK13  BANK14  BANK15  BANK1
      +6  BANK17  BANK18  BANK19  BANK20  BANK21  BANK22  BANK23  BANK24  BANK25  BANK26  BANK27  BANK28  BANK29  BANK30  BANK3
      +1  BANK32  BANK33  BANK34  BANK35  BANK36
  4763 ;;      Params:         4       0       0       0       0       0       0       0       0       0       0       0       
      +0       0       0       0       0       0       0       0       0       0       0       0       0       0       0       
      +0       0       0       0       0       0
  4764 ;;      Locals:         0       0       0       0       0       0       0       0       0       0       0       0       
      +0       0       0       0       0       0       0       0       0       0       0       0       0       0       0       
      +0       0       0       0       0       0
  4765 ;;      Temps:          0       0       0       0       0       0       0       0       0       0       0       0       
      +0       0       0       0       0       0       0       0       0       0       0       0       0       0       0       
      +0       0       0       0       0       0
  4766 ;;      Totals:         4       0       0       0       0       0       0       0       0       0       0       0       
      +0       0       0       0       0       0       0       0       0       0       0       0       0       0       0       
      +0       0       0       0       0       0
  4767 ;;Total ram usage:        4 bytes
  4768 ;; Hardware stack levels used: 1
  4769 ;; This function calls:
  4770 ;;		Nothing
  4771 ;; This function is called by:
  4772 ;;		_efgtoa
  4773 ;; This function uses a non-reentrant model
  4774 ;;
  4775                           
  4776                           	psect	text18
  4777   004AE4                     __ptext18:
  4778                           	callstack 0
  4779   004AE4                     ___flneg:
  4780                           	callstack 121
  4781   004AE4  5001               	movf	___flneg@f1^(0+1280),w,c
  4782   004AE6  1002               	iorwf	(___flneg@f1+1)^(0+1280),w,c
  4783   004AE8  1003               	iorwf	(___flneg@f1+2)^(0+1280),w,c
  4784   004AEA  1004               	iorwf	(___flneg@f1+3)^(0+1280),w,c
  4785   004AEC  B4D8               	btfsc	status,2,c
  4786   004AEE  EF7B  F025         	goto	i2u265_41
  4787   004AF2  EF7D  F025         	goto	i2u265_40
  4788   004AF6                     i2u265_41:
  4789   004AF6  EF85  F025         	goto	i2l2819
  4790   004AFA                     i2u265_40:
  4791   004AFA  0E00               	movlw	0
  4792   004AFC  1A01               	xorwf	___flneg@f1^(0+1280),f,c
  4793   004AFE  0E00               	movlw	0
  4794   004B00  1A02               	xorwf	(___flneg@f1+1)^(0+1280),f,c
  4795   004B02  0E00               	movlw	0
  4796   004B04  1A03               	xorwf	(___flneg@f1+2)^(0+1280),f,c
  4797   004B06  0E80               	movlw	128
  4798   004B08  1A04               	xorwf	(___flneg@f1+3)^(0+1280),f,c
  4799   004B0A                     i2l2819:
  4800   004B0A  C501  F501         	movff	___flneg@f1,?___flneg
  4801   004B0E  C502  F502         	movff	___flneg@f1+1,?___flneg+1
  4802   004B12  C503  F503         	movff	___flneg@f1+2,?___flneg+2
  4803   004B16  C504  F504         	movff	___flneg@f1+3,?___flneg+3
  4804   004B1A  0012               	return		;funcret
  4805   004B1C                     __end_of___flneg:
  4806                           	callstack 0
  4807                           
  4808 ;; *************** function ___flmul *****************
  4809 ;; Defined at:
  4810 ;;		line 8 in file "D:\XC8\pic\sources\c99\common\sprcmul.c"
  4811 ;; Parameters:    Size  Location     Type
  4812 ;;  b               4   14[COMRAM] unsigned char 
  4813 ;;  a               4   18[COMRAM] unsigned char 
  4814 ;; Auto vars:     Size  Location     Type
  4815 ;;  prod            4   33[COMRAM] struct .
  4816 ;;  grs             4   27[COMRAM] unsigned long 
  4817 ;;  temp            2   37[COMRAM] struct .
  4818 ;;  bexp            1   32[COMRAM] unsigned char 
  4819 ;;  aexp            1   31[COMRAM] unsigned char 
  4820 ;;  sign            1   26[COMRAM] unsigned char 
  4821 ;; Return value:  Size  Location     Type
  4822 ;;                  4   14[COMRAM] unsigned char 
  4823 ;; Registers used:
  4824 ;;		wreg, status,2, status,0, prodl, prodh
  4825 ;; Tracked objects:
  4826 ;;		On entry : 0/0
  4827 ;;		On exit  : 0/0
  4828 ;;		Unchanged: 0/0
  4829 ;; Data sizes:     COMRAM   BANK5   BANK6   BANK7   BANK8   BANK9  BANK10  BANK11  BANK12  BANK13  BANK14  BANK15  BANK1
      +6  BANK17  BANK18  BANK19  BANK20  BANK21  BANK22  BANK23  BANK24  BANK25  BANK26  BANK27  BANK28  BANK29  BANK30  BANK3
      +1  BANK32  BANK33  BANK34  BANK35  BANK36
  4830 ;;      Params:         8       0       0       0       0       0       0       0       0       0       0       0       
      +0       0       0       0       0       0       0       0       0       0       0       0       0       0       0       
      +0       0       0       0       0       0
  4831 ;;      Locals:        13       0       0       0       0       0       0       0       0       0       0       0       
      +0       0       0       0       0       0       0       0       0       0       0       0       0       0       0       
      +0       0       0       0       0       0
  4832 ;;      Temps:          4       0       0       0       0       0       0       0       0       0       0       0       
      +0       0       0       0       0       0       0       0       0       0       0       0       0       0       0       
      +0       0       0       0       0       0
  4833 ;;      Totals:        25       0       0       0       0       0       0       0       0       0       0       0       
      +0       0       0       0       0       0       0       0       0       0       0       0       0       0       0       
      +0       0       0       0       0       0
  4834 ;;Total ram usage:       25 bytes
  4835 ;; Hardware stack levels used: 1
  4836 ;; This function calls:
  4837 ;;		Nothing
  4838 ;; This function is called by:
  4839 ;;		_ADC_ISR
  4840 ;;		_efgtoa
  4841 ;; This function uses a non-reentrant model
  4842 ;;
  4843                           
  4844                           	psect	text19
  4845   0034CC                     __ptext19:
  4846                           	callstack 0
  4847   0034CC                     ___flmul:
  4848                           	callstack 121
  4849   0034CC  5012               	movf	(___flmul@b+3)^(0+1280),w,c
  4850   0034CE  0B80               	andlw	128
  4851   0034D0  6E1B               	movwf	___flmul@sign^(0+1280),c
  4852   0034D2  5012               	movf	(___flmul@b+3)^(0+1280),w,c
  4853   0034D4  2412               	addwf	(___flmul@b+3)^(0+1280),w,c
  4854   0034D6  6E21               	movwf	___flmul@bexp^(0+1280),c
  4855   0034D8  AE11               	btfss	(___flmul@b+2)^(0+1280),7,c
  4856   0034DA  EF71  F01A         	goto	i2u238_41
  4857   0034DE  EF73  F01A         	goto	i2u238_40
  4858   0034E2                     i2u238_41:
  4859   0034E2  EF74  F01A         	goto	i2l2647
  4860   0034E6                     i2u238_40:
  4861   0034E6  8021               	bsf	___flmul@bexp^(0+1280),0,c
  4862   0034E8                     i2l2647:
  4863   0034E8  5021               	movf	___flmul@bexp^(0+1280),w,c
  4864   0034EA  B4D8               	btfsc	status,2,c
  4865   0034EC  EF7A  F01A         	goto	i2u239_41
  4866   0034F0  EF7C  F01A         	goto	i2u239_40
  4867   0034F4                     i2u239_41:
  4868   0034F4  EF8F  F01A         	goto	i2l2655
  4869   0034F8                     i2u239_40:
  4870   0034F8  2821               	incf	___flmul@bexp^(0+1280),w,c
  4871   0034FA  A4D8               	btfss	status,2,c
  4872   0034FC  EF82  F01A         	goto	i2u240_41
  4873   003500  EF84  F01A         	goto	i2u240_40
  4874   003504                     i2u240_41:
  4875   003504  EF8C  F01A         	goto	i2l2653
  4876   003508                     i2u240_40:
  4877   003508  0E00               	movlw	0
  4878   00350A  6E0F               	movwf	___flmul@b^(0+1280),c
  4879   00350C  0E00               	movlw	0
  4880   00350E  6E10               	movwf	(___flmul@b+1)^(0+1280),c
  4881   003510  0E00               	movlw	0
  4882   003512  6E11               	movwf	(___flmul@b+2)^(0+1280),c
  4883   003514  0E00               	movlw	0
  4884   003516  6E12               	movwf	(___flmul@b+3)^(0+1280),c
  4885   003518                     i2l2653:
  4886   003518  8E11               	bsf	(___flmul@b+2)^(0+1280),7,c
  4887   00351A  EF97  F01A         	goto	i2l2657
  4888   00351E                     i2l2655:
  4889   00351E  0E00               	movlw	0
  4890   003520  6E0F               	movwf	___flmul@b^(0+1280),c
  4891   003522  0E00               	movlw	0
  4892   003524  6E10               	movwf	(___flmul@b+1)^(0+1280),c
  4893   003526  0E00               	movlw	0
  4894   003528  6E11               	movwf	(___flmul@b+2)^(0+1280),c
  4895   00352A  0E00               	movlw	0
  4896   00352C  6E12               	movwf	(___flmul@b+3)^(0+1280),c
  4897   00352E                     i2l2657:
  4898   00352E  5016               	movf	(___flmul@a+3)^(0+1280),w,c
  4899   003530  0B80               	andlw	128
  4900   003532  1A1B               	xorwf	___flmul@sign^(0+1280),f,c
  4901   003534  5016               	movf	(___flmul@a+3)^(0+1280),w,c
  4902   003536  2416               	addwf	(___flmul@a+3)^(0+1280),w,c
  4903   003538  6E20               	movwf	___flmul@aexp^(0+1280),c
  4904   00353A  AE15               	btfss	(___flmul@a+2)^(0+1280),7,c
  4905   00353C  EFA2  F01A         	goto	i2u241_41
  4906   003540  EFA4  F01A         	goto	i2u241_40
  4907   003544                     i2u241_41:
  4908   003544  EFA5  F01A         	goto	i2l2665
  4909   003548                     i2u241_40:
  4910   003548  8020               	bsf	___flmul@aexp^(0+1280),0,c
  4911   00354A                     i2l2665:
  4912   00354A  5020               	movf	___flmul@aexp^(0+1280),w,c
  4913   00354C  B4D8               	btfsc	status,2,c
  4914   00354E  EFAB  F01A         	goto	i2u242_41
  4915   003552  EFAD  F01A         	goto	i2u242_40
  4916   003556                     i2u242_41:
  4917   003556  EFC0  F01A         	goto	i2l2673
  4918   00355A                     i2u242_40:
  4919   00355A  2820               	incf	___flmul@aexp^(0+1280),w,c
  4920   00355C  A4D8               	btfss	status,2,c
  4921   00355E  EFB3  F01A         	goto	i2u243_41
  4922   003562  EFB5  F01A         	goto	i2u243_40
  4923   003566                     i2u243_41:
  4924   003566  EFBD  F01A         	goto	i2l2671
  4925   00356A                     i2u243_40:
  4926   00356A  0E00               	movlw	0
  4927   00356C  6E13               	movwf	___flmul@a^(0+1280),c
  4928   00356E  0E00               	movlw	0
  4929   003570  6E14               	movwf	(___flmul@a+1)^(0+1280),c
  4930   003572  0E00               	movlw	0
  4931   003574  6E15               	movwf	(___flmul@a+2)^(0+1280),c
  4932   003576  0E00               	movlw	0
  4933   003578  6E16               	movwf	(___flmul@a+3)^(0+1280),c
  4934   00357A                     i2l2671:
  4935   00357A  8E15               	bsf	(___flmul@a+2)^(0+1280),7,c
  4936   00357C  EFC8  F01A         	goto	i2l811
  4937   003580                     i2l2673:
  4938   003580  0E00               	movlw	0
  4939   003582  6E13               	movwf	___flmul@a^(0+1280),c
  4940   003584  0E00               	movlw	0
  4941   003586  6E14               	movwf	(___flmul@a+1)^(0+1280),c
  4942   003588  0E00               	movlw	0
  4943   00358A  6E15               	movwf	(___flmul@a+2)^(0+1280),c
  4944   00358C  0E00               	movlw	0
  4945   00358E  6E16               	movwf	(___flmul@a+3)^(0+1280),c
  4946   003590                     i2l811:
  4947   003590  5020               	movf	___flmul@aexp^(0+1280),w,c
  4948   003592  B4D8               	btfsc	status,2,c
  4949   003594  EFCE  F01A         	goto	i2u244_41
  4950   003598  EFD0  F01A         	goto	i2u244_40
  4951   00359C                     i2u244_41:
  4952   00359C  EFD8  F01A         	goto	i2l2677
  4953   0035A0                     i2u244_40:
  4954   0035A0  5021               	movf	___flmul@bexp^(0+1280),w,c
  4955   0035A2  A4D8               	btfss	status,2,c
  4956   0035A4  EFD6  F01A         	goto	i2u245_41
  4957   0035A8  EFD8  F01A         	goto	i2u245_40
  4958   0035AC                     i2u245_41:
  4959   0035AC  EFE2  F01A         	goto	i2l2681
  4960   0035B0                     i2u245_40:
  4961   0035B0                     i2l2677:
  4962   0035B0  0E00               	movlw	0
  4963   0035B2  6E0F               	movwf	?___flmul^(0+1280),c
  4964   0035B4  0E00               	movlw	0
  4965   0035B6  6E10               	movwf	(?___flmul+1)^(0+1280),c
  4966   0035B8  0E00               	movlw	0
  4967   0035BA  6E11               	movwf	(?___flmul+2)^(0+1280),c
  4968   0035BC  0E00               	movlw	0
  4969   0035BE  6E12               	movwf	(?___flmul+3)^(0+1280),c
  4970   0035C0  EF7A  F01C         	goto	i2l815
  4971   0035C4                     i2l2681:
  4972   0035C4  5015               	movf	(___flmul@a+2)^(0+1280),w,c
  4973   0035C6  020F               	mulwf	___flmul@b^(0+1280),c
  4974   0035C8  C4F3 F526          	movff	prodl,___flmul@temp
  4975   0035CC  C4F4 F527          	movff	prodh,___flmul@temp+1
  4976   0035D0  5026               	movf	___flmul@temp^(0+1280),w,c
  4977   0035D2  6E1C               	movwf	___flmul@grs^(0+1280),c
  4978   0035D4  6A1D               	clrf	(___flmul@grs+1)^(0+1280),c
  4979   0035D6  6A1E               	clrf	(___flmul@grs+2)^(0+1280),c
  4980   0035D8  6A1F               	clrf	(___flmul@grs+3)^(0+1280),c
  4981   0035DA  5027               	movf	(___flmul@temp+1)^(0+1280),w,c
  4982   0035DC  6E22               	movwf	___flmul@prod^(0+1280),c
  4983   0035DE  6A23               	clrf	(___flmul@prod+1)^(0+1280),c
  4984   0035E0  6A24               	clrf	(___flmul@prod+2)^(0+1280),c
  4985   0035E2  6A25               	clrf	(___flmul@prod+3)^(0+1280),c
  4986   0035E4  5014               	movf	(___flmul@a+1)^(0+1280),w,c
  4987   0035E6  0210               	mulwf	(___flmul@b+1)^(0+1280),c
  4988   0035E8  C4F3 F526          	movff	prodl,___flmul@temp
  4989   0035EC  C4F4 F527          	movff	prodh,___flmul@temp+1
  4990   0035F0  5026               	movf	___flmul@temp^(0+1280),w,c
  4991   0035F2  261C               	addwf	___flmul@grs^(0+1280),f,c
  4992   0035F4  0E00               	movlw	0
  4993   0035F6  221D               	addwfc	(___flmul@grs+1)^(0+1280),f,c
  4994   0035F8  221E               	addwfc	(___flmul@grs+2)^(0+1280),f,c
  4995   0035FA  221F               	addwfc	(___flmul@grs+3)^(0+1280),f,c
  4996   0035FC  5027               	movf	(___flmul@temp+1)^(0+1280),w,c
  4997   0035FE  2622               	addwf	___flmul@prod^(0+1280),f,c
  4998   003600  0E00               	movlw	0
  4999   003602  2223               	addwfc	(___flmul@prod+1)^(0+1280),f,c
  5000   003604  2224               	addwfc	(___flmul@prod+2)^(0+1280),f,c
  5001   003606  2225               	addwfc	(___flmul@prod+3)^(0+1280),f,c
  5002   003608  5013               	movf	___flmul@a^(0+1280),w,c
  5003   00360A  0211               	mulwf	(___flmul@b+2)^(0+1280),c
  5004   00360C  C4F3 F526          	movff	prodl,___flmul@temp
  5005   003610  C4F4 F527          	movff	prodh,___flmul@temp+1
  5006   003614  5026               	movf	___flmul@temp^(0+1280),w,c
  5007   003616  261C               	addwf	___flmul@grs^(0+1280),f,c
  5008   003618  0E00               	movlw	0
  5009   00361A  221D               	addwfc	(___flmul@grs+1)^(0+1280),f,c
  5010   00361C  221E               	addwfc	(___flmul@grs+2)^(0+1280),f,c
  5011   00361E  221F               	addwfc	(___flmul@grs+3)^(0+1280),f,c
  5012   003620  5027               	movf	(___flmul@temp+1)^(0+1280),w,c
  5013   003622  2622               	addwf	___flmul@prod^(0+1280),f,c
  5014   003624  0E00               	movlw	0
  5015   003626  2223               	addwfc	(___flmul@prod+1)^(0+1280),f,c
  5016   003628  2224               	addwfc	(___flmul@prod+2)^(0+1280),f,c
  5017   00362A  2225               	addwfc	(___flmul@prod+3)^(0+1280),f,c
  5018   00362C  C51E  F51F         	movff	___flmul@grs+2,___flmul@grs+3
  5019   003630  C51D  F51E         	movff	___flmul@grs+1,___flmul@grs+2
  5020   003634  C51C  F51D         	movff	___flmul@grs,___flmul@grs+1
  5021   003638  6A1C               	clrf	___flmul@grs^(0+1280),c
  5022   00363A  5013               	movf	___flmul@a^(0+1280),w,c
  5023   00363C  0210               	mulwf	(___flmul@b+1)^(0+1280),c
  5024   00363E  C4F3 F526          	movff	prodl,___flmul@temp
  5025   003642  C4F4 F527          	movff	prodh,___flmul@temp+1
  5026   003646  5026               	movf	___flmul@temp^(0+1280),w,c
  5027   003648  261C               	addwf	___flmul@grs^(0+1280),f,c
  5028   00364A  5027               	movf	(___flmul@temp+1)^(0+1280),w,c
  5029   00364C  221D               	addwfc	(___flmul@grs+1)^(0+1280),f,c
  5030   00364E  0E00               	movlw	0
  5031   003650  221E               	addwfc	(___flmul@grs+2)^(0+1280),f,c
  5032   003652  0E00               	movlw	0
  5033   003654  221F               	addwfc	(___flmul@grs+3)^(0+1280),f,c
  5034   003656  5014               	movf	(___flmul@a+1)^(0+1280),w,c
  5035   003658  020F               	mulwf	___flmul@b^(0+1280),c
  5036   00365A  C4F3 F526          	movff	prodl,___flmul@temp
  5037   00365E  C4F4 F527          	movff	prodh,___flmul@temp+1
  5038   003662  5026               	movf	___flmul@temp^(0+1280),w,c
  5039   003664  261C               	addwf	___flmul@grs^(0+1280),f,c
  5040   003666  5027               	movf	(___flmul@temp+1)^(0+1280),w,c
  5041   003668  221D               	addwfc	(___flmul@grs+1)^(0+1280),f,c
  5042   00366A  0E00               	movlw	0
  5043   00366C  221E               	addwfc	(___flmul@grs+2)^(0+1280),f,c
  5044   00366E  0E00               	movlw	0
  5045   003670  221F               	addwfc	(___flmul@grs+3)^(0+1280),f,c
  5046   003672  C51E  F51F         	movff	___flmul@grs+2,___flmul@grs+3
  5047   003676  C51D  F51E         	movff	___flmul@grs+1,___flmul@grs+2
  5048   00367A  C51C  F51D         	movff	___flmul@grs,___flmul@grs+1
  5049   00367E  6A1C               	clrf	___flmul@grs^(0+1280),c
  5050   003680  5013               	movf	___flmul@a^(0+1280),w,c
  5051   003682  020F               	mulwf	___flmul@b^(0+1280),c
  5052   003684  C4F3 F526          	movff	prodl,___flmul@temp
  5053   003688  C4F4 F527          	movff	prodh,___flmul@temp+1
  5054   00368C  5026               	movf	___flmul@temp^(0+1280),w,c
  5055   00368E  261C               	addwf	___flmul@grs^(0+1280),f,c
  5056   003690  5027               	movf	(___flmul@temp+1)^(0+1280),w,c
  5057   003692  221D               	addwfc	(___flmul@grs+1)^(0+1280),f,c
  5058   003694  0E00               	movlw	0
  5059   003696  221E               	addwfc	(___flmul@grs+2)^(0+1280),f,c
  5060   003698  0E00               	movlw	0
  5061   00369A  221F               	addwfc	(___flmul@grs+3)^(0+1280),f,c
  5062   00369C  5015               	movf	(___flmul@a+2)^(0+1280),w,c
  5063   00369E  0210               	mulwf	(___flmul@b+1)^(0+1280),c
  5064   0036A0  C4F3 F526          	movff	prodl,___flmul@temp
  5065   0036A4  C4F4 F527          	movff	prodh,___flmul@temp+1
  5066   0036A8  5026               	movf	___flmul@temp^(0+1280),w,c
  5067   0036AA  2622               	addwf	___flmul@prod^(0+1280),f,c
  5068   0036AC  5027               	movf	(___flmul@temp+1)^(0+1280),w,c
  5069   0036AE  2223               	addwfc	(___flmul@prod+1)^(0+1280),f,c
  5070   0036B0  0E00               	movlw	0
  5071   0036B2  2224               	addwfc	(___flmul@prod+2)^(0+1280),f,c
  5072   0036B4  0E00               	movlw	0
  5073   0036B6  2225               	addwfc	(___flmul@prod+3)^(0+1280),f,c
  5074   0036B8  5014               	movf	(___flmul@a+1)^(0+1280),w,c
  5075   0036BA  0211               	mulwf	(___flmul@b+2)^(0+1280),c
  5076   0036BC  C4F3 F526          	movff	prodl,___flmul@temp
  5077   0036C0  C4F4 F527          	movff	prodh,___flmul@temp+1
  5078   0036C4  5026               	movf	___flmul@temp^(0+1280),w,c
  5079   0036C6  2622               	addwf	___flmul@prod^(0+1280),f,c
  5080   0036C8  5027               	movf	(___flmul@temp+1)^(0+1280),w,c
  5081   0036CA  2223               	addwfc	(___flmul@prod+1)^(0+1280),f,c
  5082   0036CC  0E00               	movlw	0
  5083   0036CE  2224               	addwfc	(___flmul@prod+2)^(0+1280),f,c
  5084   0036D0  0E00               	movlw	0
  5085   0036D2  2225               	addwfc	(___flmul@prod+3)^(0+1280),f,c
  5086   0036D4  5015               	movf	(___flmul@a+2)^(0+1280),w,c
  5087   0036D6  0211               	mulwf	(___flmul@b+2)^(0+1280),c
  5088   0036D8  C4F3 F526          	movff	prodl,___flmul@temp
  5089   0036DC  C4F4 F527          	movff	prodh,___flmul@temp+1
  5090   0036E0  5026               	movf	___flmul@temp^(0+1280),w,c
  5091   0036E2  6E17               	movwf	??___flmul^(0+1280),c
  5092   0036E4  5027               	movf	(___flmul@temp+1)^(0+1280),w,c
  5093   0036E6  6E18               	movwf	(??___flmul+1)^(0+1280),c
  5094   0036E8  6A19               	clrf	(??___flmul+2)^(0+1280),c
  5095   0036EA  6A1A               	clrf	(??___flmul+3)^(0+1280),c
  5096   0036EC  C519  F51A         	movff	??___flmul+2,??___flmul+3
  5097   0036F0  C518  F519         	movff	??___flmul+1,??___flmul+2
  5098   0036F4  C517  F518         	movff	??___flmul,??___flmul+1
  5099   0036F8  6A17               	clrf	??___flmul^(0+1280),c
  5100   0036FA  5017               	movf	??___flmul^(0+1280),w,c
  5101   0036FC  2622               	addwf	___flmul@prod^(0+1280),f,c
  5102   0036FE  5018               	movf	(??___flmul+1)^(0+1280),w,c
  5103   003700  2223               	addwfc	(___flmul@prod+1)^(0+1280),f,c
  5104   003702  5019               	movf	(??___flmul+2)^(0+1280),w,c
  5105   003704  2224               	addwfc	(___flmul@prod+2)^(0+1280),f,c
  5106   003706  501A               	movf	(??___flmul+3)^(0+1280),w,c
  5107   003708  2225               	addwfc	(___flmul@prod+3)^(0+1280),f,c
  5108   00370A  C51C  F517         	movff	___flmul@grs,??___flmul
  5109   00370E  C51D  F518         	movff	___flmul@grs+1,??___flmul+1
  5110   003712  C51E  F519         	movff	___flmul@grs+2,??___flmul+2
  5111   003716  C51F  F51A         	movff	___flmul@grs+3,??___flmul+3
  5112   00371A  0E19               	movlw	25
  5113   00371C  EF95  F01B         	goto	i2u246_40
  5114   003720                     i2u246_45:
  5115   003720  90D8               	bcf	status,0,c
  5116   003722  321A               	rrcf	(??___flmul+3)^(0+1280),f,c
  5117   003724  3219               	rrcf	(??___flmul+2)^(0+1280),f,c
  5118   003726  3218               	rrcf	(??___flmul+1)^(0+1280),f,c
  5119   003728  3217               	rrcf	??___flmul^(0+1280),f,c
  5120   00372A                     i2u246_40:
  5121   00372A  2EE8               	decfsz	wreg,f,c
  5122   00372C  EF90  F01B         	goto	i2u246_45
  5123   003730  5017               	movf	??___flmul^(0+1280),w,c
  5124   003732  2622               	addwf	___flmul@prod^(0+1280),f,c
  5125   003734  5018               	movf	(??___flmul+1)^(0+1280),w,c
  5126   003736  2223               	addwfc	(___flmul@prod+1)^(0+1280),f,c
  5127   003738  5019               	movf	(??___flmul+2)^(0+1280),w,c
  5128   00373A  2224               	addwfc	(___flmul@prod+2)^(0+1280),f,c
  5129   00373C  501A               	movf	(??___flmul+3)^(0+1280),w,c
  5130   00373E  2225               	addwfc	(___flmul@prod+3)^(0+1280),f,c
  5131   003740  C51E  F51F         	movff	___flmul@grs+2,___flmul@grs+3
  5132   003744  C51D  F51E         	movff	___flmul@grs+1,___flmul@grs+2
  5133   003748  C51C  F51D         	movff	___flmul@grs,___flmul@grs+1
  5134   00374C  6A1C               	clrf	___flmul@grs^(0+1280),c
  5135   00374E  5020               	movf	___flmul@aexp^(0+1280),w,c
  5136   003750  C521  F517         	movff	___flmul@bexp,??___flmul
  5137   003754  6A18               	clrf	(??___flmul+1)^(0+1280),c
  5138   003756  2617               	addwf	??___flmul^(0+1280),f,c
  5139   003758  0E00               	movlw	0
  5140   00375A  2218               	addwfc	(??___flmul+1)^(0+1280),f,c
  5141   00375C  0E82               	movlw	130
  5142   00375E  2417               	addwf	??___flmul^(0+1280),w,c
  5143   003760  6E26               	movwf	___flmul@temp^(0+1280),c
  5144   003762  0EFF               	movlw	255
  5145   003764  2018               	addwfc	(??___flmul+1)^(0+1280),w,c
  5146   003766  6E27               	movwf	(___flmul@temp+1)^(0+1280),c
  5147   003768  EFCB  F01B         	goto	i2l2729
  5148   00376C                     i2l2723:
  5149   00376C  90D8               	bcf	status,0,c
  5150   00376E  3622               	rlcf	___flmul@prod^(0+1280),f,c
  5151   003770  3623               	rlcf	(___flmul@prod+1)^(0+1280),f,c
  5152   003772  3624               	rlcf	(___flmul@prod+2)^(0+1280),f,c
  5153   003774  3625               	rlcf	(___flmul@prod+3)^(0+1280),f,c
  5154   003776  AE1F               	btfss	(___flmul@grs+3)^(0+1280),7,c
  5155   003778  EFC0  F01B         	goto	i2u247_41
  5156   00377C  EFC2  F01B         	goto	i2u247_40
  5157   003780                     i2u247_41:
  5158   003780  EFC3  F01B         	goto	i2l818
  5159   003784                     i2u247_40:
  5160   003784  8022               	bsf	___flmul@prod^(0+1280),0,c
  5161   003786                     i2l818:
  5162   003786  90D8               	bcf	status,0,c
  5163   003788  361C               	rlcf	___flmul@grs^(0+1280),f,c
  5164   00378A  361D               	rlcf	(___flmul@grs+1)^(0+1280),f,c
  5165   00378C  361E               	rlcf	(___flmul@grs+2)^(0+1280),f,c
  5166   00378E  361F               	rlcf	(___flmul@grs+3)^(0+1280),f,c
  5167   003790  0626               	decf	___flmul@temp^(0+1280),f,c
  5168   003792  A0D8               	btfss	status,0,c
  5169   003794  0627               	decf	(___flmul@temp+1)^(0+1280),f,c
  5170   003796                     i2l2729:
  5171   003796  AE24               	btfss	(___flmul@prod+2)^(0+1280),7,c
  5172   003798  EFD0  F01B         	goto	i2u248_41
  5173   00379C  EFD2  F01B         	goto	i2u248_40
  5174   0037A0                     i2u248_41:
  5175   0037A0  EFB6  F01B         	goto	i2l2723
  5176   0037A4                     i2u248_40:
  5177   0037A4  0E00               	movlw	0
  5178   0037A6  6E20               	movwf	___flmul@aexp^(0+1280),c
  5179   0037A8  AE1F               	btfss	(___flmul@grs+3)^(0+1280),7,c
  5180   0037AA  EFD9  F01B         	goto	i2u249_41
  5181   0037AE  EFDB  F01B         	goto	i2u249_40
  5182   0037B2                     i2u249_41:
  5183   0037B2  EFFF  F01B         	goto	i2l820
  5184   0037B6                     i2u249_40:
  5185   0037B6  0EFF               	movlw	255
  5186   0037B8  141C               	andwf	___flmul@grs^(0+1280),w,c
  5187   0037BA  6E17               	movwf	??___flmul^(0+1280),c
  5188   0037BC  0EFF               	movlw	255
  5189   0037BE  141D               	andwf	(___flmul@grs+1)^(0+1280),w,c
  5190   0037C0  6E18               	movwf	(??___flmul+1)^(0+1280),c
  5191   0037C2  0EFF               	movlw	255
  5192   0037C4  141E               	andwf	(___flmul@grs+2)^(0+1280),w,c
  5193   0037C6  6E19               	movwf	(??___flmul+2)^(0+1280),c
  5194   0037C8  0E7F               	movlw	127
  5195   0037CA  141F               	andwf	(___flmul@grs+3)^(0+1280),w,c
  5196   0037CC  6E1A               	movwf	(??___flmul+3)^(0+1280),c
  5197   0037CE  5017               	movf	??___flmul^(0+1280),w,c
  5198   0037D0  1018               	iorwf	(??___flmul+1)^(0+1280),w,c
  5199   0037D2  1019               	iorwf	(??___flmul+2)^(0+1280),w,c
  5200   0037D4  101A               	iorwf	(??___flmul+3)^(0+1280),w,c
  5201   0037D6  B4D8               	btfsc	status,2,c
  5202   0037D8  EFF0  F01B         	goto	i2u250_41
  5203   0037DC  EFF2  F01B         	goto	i2u250_40
  5204   0037E0                     i2u250_41:
  5205   0037E0  EFF6  F01B         	goto	i2l821
  5206   0037E4                     i2u250_40:
  5207   0037E4                     i2l2737:
  5208   0037E4  0E01               	movlw	1
  5209   0037E6  6E20               	movwf	___flmul@aexp^(0+1280),c
  5210   0037E8  EFFF  F01B         	goto	i2l820
  5211   0037EC                     i2l821:
  5212   0037EC  A022               	btfss	___flmul@prod^(0+1280),0,c
  5213   0037EE  EFFB  F01B         	goto	i2u251_41
  5214   0037F2  EFFD  F01B         	goto	i2u251_40
  5215   0037F6                     i2u251_41:
  5216   0037F6  EFFF  F01B         	goto	i2l820
  5217   0037FA                     i2u251_40:
  5218   0037FA  EFF2  F01B         	goto	i2l2737
  5219   0037FE                     i2l820:
  5220   0037FE  5020               	movf	___flmul@aexp^(0+1280),w,c
  5221   003800  B4D8               	btfsc	status,2,c
  5222   003802  EF05  F01C         	goto	i2u252_41
  5223   003806  EF07  F01C         	goto	i2u252_40
  5224   00380A                     i2u252_41:
  5225   00380A  EF2B  F01C         	goto	i2l2749
  5226   00380E                     i2u252_40:
  5227   00380E  0E01               	movlw	1
  5228   003810  2622               	addwf	___flmul@prod^(0+1280),f,c
  5229   003812  0E00               	movlw	0
  5230   003814  2223               	addwfc	(___flmul@prod+1)^(0+1280),f,c
  5231   003816  2224               	addwfc	(___flmul@prod+2)^(0+1280),f,c
  5232   003818  2225               	addwfc	(___flmul@prod+3)^(0+1280),f,c
  5233   00381A  A025               	btfss	(___flmul@prod+3)^(0+1280),0,c
  5234   00381C  EF12  F01C         	goto	i2u253_41
  5235   003820  EF14  F01C         	goto	i2u253_40
  5236   003824                     i2u253_41:
  5237   003824  EF2B  F01C         	goto	i2l2749
  5238   003828                     i2u253_40:
  5239   003828  C522  F517         	movff	___flmul@prod,??___flmul
  5240   00382C  C523  F518         	movff	___flmul@prod+1,??___flmul+1
  5241   003830  C524  F519         	movff	___flmul@prod+2,??___flmul+2
  5242   003834  C525  F51A         	movff	___flmul@prod+3,??___flmul+3
  5243   003838  341A               	rlcf	(??___flmul+3)^(0+1280),w,c
  5244   00383A  321A               	rrcf	(??___flmul+3)^(0+1280),f,c
  5245   00383C  3219               	rrcf	(??___flmul+2)^(0+1280),f,c
  5246   00383E  3218               	rrcf	(??___flmul+1)^(0+1280),f,c
  5247   003840  3217               	rrcf	??___flmul^(0+1280),f,c
  5248   003842  C517  F522         	movff	??___flmul,___flmul@prod
  5249   003846  C518  F523         	movff	??___flmul+1,___flmul@prod+1
  5250   00384A  C519  F524         	movff	??___flmul+2,___flmul@prod+2
  5251   00384E  C51A  F525         	movff	??___flmul+3,___flmul@prod+3
  5252   003852  4A26               	infsnz	___flmul@temp^(0+1280),f,c
  5253   003854  2A27               	incf	(___flmul@temp+1)^(0+1280),f,c
  5254   003856                     i2l2749:
  5255   003856  BE27               	btfsc	(___flmul@temp+1)^(0+1280),7,c
  5256   003858  EF36  F01C         	goto	i2u254_41
  5257   00385C  5027               	movf	(___flmul@temp+1)^(0+1280),w,c
  5258   00385E  E108               	bnz	i2u254_40
  5259   003860  2826               	incf	___flmul@temp^(0+1280),w,c
  5260   003862  A0D8               	btfss	status,0,c
  5261   003864  EF36  F01C         	goto	i2u254_41
  5262   003868  EF38  F01C         	goto	i2u254_40
  5263   00386C                     i2u254_41:
  5264   00386C  EF42  F01C         	goto	i2l2753
  5265   003870                     i2u254_40:
  5266   003870  0E00               	movlw	0
  5267   003872  6E22               	movwf	___flmul@prod^(0+1280),c
  5268   003874  0E00               	movlw	0
  5269   003876  6E23               	movwf	(___flmul@prod+1)^(0+1280),c
  5270   003878  0E80               	movlw	128
  5271   00387A  6E24               	movwf	(___flmul@prod+2)^(0+1280),c
  5272   00387C  0E7F               	movlw	127
  5273   00387E  6E25               	movwf	(___flmul@prod+3)^(0+1280),c
  5274   003880  EF70  F01C         	goto	i2l2765
  5275   003884                     i2l2753:
  5276   003884  BE27               	btfsc	(___flmul@temp+1)^(0+1280),7,c
  5277   003886  EF4F  F01C         	goto	i2u255_40
  5278   00388A  5027               	movf	(___flmul@temp+1)^(0+1280),w,c
  5279   00388C  E106               	bnz	i2u255_41
  5280   00388E  0426               	decf	___flmul@temp^(0+1280),w,c
  5281   003890  B0D8               	btfsc	status,0,c
  5282   003892  EF4D  F01C         	goto	i2u255_41
  5283   003896  EF4F  F01C         	goto	i2u255_40
  5284   00389A                     i2u255_41:
  5285   00389A  EF5B  F01C         	goto	i2l828
  5286   00389E                     i2u255_40:
  5287   00389E  0E00               	movlw	0
  5288   0038A0  6E22               	movwf	___flmul@prod^(0+1280),c
  5289   0038A2  0E00               	movlw	0
  5290   0038A4  6E23               	movwf	(___flmul@prod+1)^(0+1280),c
  5291   0038A6  0E00               	movlw	0
  5292   0038A8  6E24               	movwf	(___flmul@prod+2)^(0+1280),c
  5293   0038AA  0E00               	movlw	0
  5294   0038AC  6E25               	movwf	(___flmul@prod+3)^(0+1280),c
  5295   0038AE  0E00               	movlw	0
  5296   0038B0  6E1B               	movwf	___flmul@sign^(0+1280),c
  5297   0038B2  EF70  F01C         	goto	i2l2765
  5298   0038B6                     i2l828:
  5299   0038B6  C526  F521         	movff	___flmul@temp,___flmul@bexp
  5300   0038BA  0EFF               	movlw	255
  5301   0038BC  1622               	andwf	___flmul@prod^(0+1280),f,c
  5302   0038BE  0EFF               	movlw	255
  5303   0038C0  1623               	andwf	(___flmul@prod+1)^(0+1280),f,c
  5304   0038C2  0E7F               	movlw	127
  5305   0038C4  1624               	andwf	(___flmul@prod+2)^(0+1280),f,c
  5306   0038C6  0E00               	movlw	0
  5307   0038C8  1625               	andwf	(___flmul@prod+3)^(0+1280),f,c
  5308   0038CA  A021               	btfss	___flmul@bexp^(0+1280),0,c
  5309   0038CC  EF6A  F01C         	goto	i2u256_41
  5310   0038D0  EF6C  F01C         	goto	i2u256_40
  5311   0038D4                     i2u256_41:
  5312   0038D4  EF6D  F01C         	goto	i2l2763
  5313   0038D8                     i2u256_40:
  5314   0038D8  8E24               	bsf	(___flmul@prod+2)^(0+1280),7,c
  5315   0038DA                     i2l2763:
  5316   0038DA  90D8               	bcf	status,0,c
  5317   0038DC  3021               	rrcf	___flmul@bexp^(0+1280),w,c
  5318   0038DE  6E25               	movwf	(___flmul@prod+3)^(0+1280),c
  5319   0038E0                     i2l2765:
  5320   0038E0  501B               	movf	___flmul@sign^(0+1280),w,c
  5321   0038E2  1225               	iorwf	(___flmul@prod+3)^(0+1280),f,c
  5322   0038E4  C522  F50F         	movff	___flmul@prod,?___flmul
  5323   0038E8  C523  F510         	movff	___flmul@prod+1,?___flmul+1
  5324   0038EC  C524  F511         	movff	___flmul@prod+2,?___flmul+2
  5325   0038F0  C525  F512         	movff	___flmul@prod+3,?___flmul+3
  5326   0038F4                     i2l815:
  5327   0038F4  0012               	return		;funcret
  5328   0038F6                     __end_of___flmul:
  5329                           	callstack 0
  5330                           
  5331 ;; *************** function ___flge *****************
  5332 ;; Defined at:
  5333 ;;		line 4 in file "D:\XC8\pic\sources\c99\common\flge.c"
  5334 ;; Parameters:    Size  Location     Type
  5335 ;;  ff1             4   39[COMRAM] unsigned char 
  5336 ;;  ff2             4   43[COMRAM] unsigned char 
  5337 ;; Auto vars:     Size  Location     Type
  5338 ;;		None
  5339 ;; Return value:  Size  Location     Type
  5340 ;;		None               void
  5341 ;; Registers used:
  5342 ;;		wreg, status,2, status,0
  5343 ;; Tracked objects:
  5344 ;;		On entry : 0/0
  5345 ;;		On exit  : 0/0
  5346 ;;		Unchanged: 0/0
  5347 ;; Data sizes:     COMRAM   BANK5   BANK6   BANK7   BANK8   BANK9  BANK10  BANK11  BANK12  BANK13  BANK14  BANK15  BANK1
      +6  BANK17  BANK18  BANK19  BANK20  BANK21  BANK22  BANK23  BANK24  BANK25  BANK26  BANK27  BANK28  BANK29  BANK30  BANK3
      +1  BANK32  BANK33  BANK34  BANK35  BANK36
  5348 ;;      Params:         8       0       0       0       0       0       0       0       0       0       0       0       
      +0       0       0       0       0       0       0       0       0       0       0       0       0       0       0       
      +0       0       0       0       0       0
  5349 ;;      Locals:         0       0       0       0       0       0       0       0       0       0       0       0       
      +0       0       0       0       0       0       0       0       0       0       0       0       0       0       0       
      +0       0       0       0       0       0
  5350 ;;      Temps:          4       0       0       0       0       0       0       0       0       0       0       0       
      +0       0       0       0       0       0       0       0       0       0       0       0       0       0       0       
      +0       0       0       0       0       0
  5351 ;;      Totals:        12       0       0       0       0       0       0       0       0       0       0       0       
      +0       0       0       0       0       0       0       0       0       0       0       0       0       0       0       
      +0       0       0       0       0       0
  5352 ;;Total ram usage:       12 bytes
  5353 ;; Hardware stack levels used: 1
  5354 ;; This function calls:
  5355 ;;		Nothing
  5356 ;; This function is called by:
  5357 ;;		_efgtoa
  5358 ;; This function uses a non-reentrant model
  5359 ;;
  5360                           
  5361                           	psect	text20
  5362   00438C                     __ptext20:
  5363                           	callstack 0
  5364   00438C                     ___flge:
  5365                           	callstack 121
  5366   00438C  0E00               	movlw	0
  5367   00438E  1428               	andwf	___flge@ff1^(0+1280),w,c
  5368   004390  6E30               	movwf	??___flge^(0+1280),c
  5369   004392  0E00               	movlw	0
  5370   004394  1429               	andwf	(___flge@ff1+1)^(0+1280),w,c
  5371   004396  6E31               	movwf	(??___flge+1)^(0+1280),c
  5372   004398  0E80               	movlw	128
  5373   00439A  142A               	andwf	(___flge@ff1+2)^(0+1280),w,c
  5374   00439C  6E32               	movwf	(??___flge+2)^(0+1280),c
  5375   00439E  0E7F               	movlw	127
  5376   0043A0  142B               	andwf	(___flge@ff1+3)^(0+1280),w,c
  5377   0043A2  6E33               	movwf	(??___flge+3)^(0+1280),c
  5378   0043A4  5030               	movf	??___flge^(0+1280),w,c
  5379   0043A6  1031               	iorwf	(??___flge+1)^(0+1280),w,c
  5380   0043A8  1032               	iorwf	(??___flge+2)^(0+1280),w,c
  5381   0043AA  1033               	iorwf	(??___flge+3)^(0+1280),w,c
  5382   0043AC  A4D8               	btfss	status,2,c
  5383   0043AE  EFDB  F021         	goto	i2u260_41
  5384   0043B2  EFDD  F021         	goto	i2u260_40
  5385   0043B6                     i2u260_41:
  5386   0043B6  EFE5  F021         	goto	i2l2797
  5387   0043BA                     i2u260_40:
  5388   0043BA  0E00               	movlw	0
  5389   0043BC  6E28               	movwf	___flge@ff1^(0+1280),c
  5390   0043BE  0E00               	movlw	0
  5391   0043C0  6E29               	movwf	(___flge@ff1+1)^(0+1280),c
  5392   0043C2  0E00               	movlw	0
  5393   0043C4  6E2A               	movwf	(___flge@ff1+2)^(0+1280),c
  5394   0043C6  0E00               	movlw	0
  5395   0043C8  6E2B               	movwf	(___flge@ff1+3)^(0+1280),c
  5396   0043CA                     i2l2797:
  5397   0043CA  0E00               	movlw	0
  5398   0043CC  142C               	andwf	___flge@ff2^(0+1280),w,c
  5399   0043CE  6E30               	movwf	??___flge^(0+1280),c
  5400   0043D0  0E00               	movlw	0
  5401   0043D2  142D               	andwf	(___flge@ff2+1)^(0+1280),w,c
  5402   0043D4  6E31               	movwf	(??___flge+1)^(0+1280),c
  5403   0043D6  0E80               	movlw	128
  5404   0043D8  142E               	andwf	(___flge@ff2+2)^(0+1280),w,c
  5405   0043DA  6E32               	movwf	(??___flge+2)^(0+1280),c
  5406   0043DC  0E7F               	movlw	127
  5407   0043DE  142F               	andwf	(___flge@ff2+3)^(0+1280),w,c
  5408   0043E0  6E33               	movwf	(??___flge+3)^(0+1280),c
  5409   0043E2  5030               	movf	??___flge^(0+1280),w,c
  5410   0043E4  1031               	iorwf	(??___flge+1)^(0+1280),w,c
  5411   0043E6  1032               	iorwf	(??___flge+2)^(0+1280),w,c
  5412   0043E8  1033               	iorwf	(??___flge+3)^(0+1280),w,c
  5413   0043EA  A4D8               	btfss	status,2,c
  5414   0043EC  EFFA  F021         	goto	i2u261_41
  5415   0043F0  EFFC  F021         	goto	i2u261_40
  5416   0043F4                     i2u261_41:
  5417   0043F4  EF04  F022         	goto	i2l2801
  5418   0043F8                     i2u261_40:
  5419   0043F8  0E00               	movlw	0
  5420   0043FA  6E2C               	movwf	___flge@ff2^(0+1280),c
  5421   0043FC  0E00               	movlw	0
  5422   0043FE  6E2D               	movwf	(___flge@ff2+1)^(0+1280),c
  5423   004400  0E00               	movlw	0
  5424   004402  6E2E               	movwf	(___flge@ff2+2)^(0+1280),c
  5425   004404  0E00               	movlw	0
  5426   004406  6E2F               	movwf	(___flge@ff2+3)^(0+1280),c
  5427   004408                     i2l2801:
  5428   004408  AE2B               	btfss	(___flge@ff1+3)^(0+1280),7,c
  5429   00440A  EF09  F022         	goto	i2u262_41
  5430   00440E  EF0B  F022         	goto	i2u262_40
  5431   004412                     i2u262_41:
  5432   004412  EF14  F022         	goto	i2l2805
  5433   004416                     i2u262_40:
  5434   004416  6C28               	negf	___flge@ff1^(0+1280),c
  5435   004418  1E29               	comf	(___flge@ff1+1)^(0+1280),f,c
  5436   00441A  B0D8               	btfsc	status,0,c
  5437   00441C  2A29               	incf	(___flge@ff1+1)^(0+1280),f,c
  5438   00441E  1E2A               	comf	(___flge@ff1+2)^(0+1280),f,c
  5439   004420  B0D8               	btfsc	status,0,c
  5440   004422  2A2A               	incf	(___flge@ff1+2)^(0+1280),f,c
  5441   004424  0E80               	movlw	128
  5442   004426  562B               	subfwb	(___flge@ff1+3)^(0+1280),f,c
  5443   004428                     i2l2805:
  5444   004428  AE2F               	btfss	(___flge@ff2+3)^(0+1280),7,c
  5445   00442A  EF19  F022         	goto	i2u263_41
  5446   00442E  EF1B  F022         	goto	i2u263_40
  5447   004432                     i2u263_41:
  5448   004432  EF24  F022         	goto	i2l462
  5449   004436                     i2u263_40:
  5450   004436  6C2C               	negf	___flge@ff2^(0+1280),c
  5451   004438  1E2D               	comf	(___flge@ff2+1)^(0+1280),f,c
  5452   00443A  B0D8               	btfsc	status,0,c
  5453   00443C  2A2D               	incf	(___flge@ff2+1)^(0+1280),f,c
  5454   00443E  1E2E               	comf	(___flge@ff2+2)^(0+1280),f,c
  5455   004440  B0D8               	btfsc	status,0,c
  5456   004442  2A2E               	incf	(___flge@ff2+2)^(0+1280),f,c
  5457   004444  0E80               	movlw	128
  5458   004446  562F               	subfwb	(___flge@ff2+3)^(0+1280),f,c
  5459   004448                     i2l462:
  5460   004448  0E00               	movlw	0
  5461   00444A  1A28               	xorwf	___flge@ff1^(0+1280),f,c
  5462   00444C  0E00               	movlw	0
  5463   00444E  1A29               	xorwf	(___flge@ff1+1)^(0+1280),f,c
  5464   004450  0E00               	movlw	0
  5465   004452  1A2A               	xorwf	(___flge@ff1+2)^(0+1280),f,c
  5466   004454  0E80               	movlw	128
  5467   004456  1A2B               	xorwf	(___flge@ff1+3)^(0+1280),f,c
  5468   004458  0E00               	movlw	0
  5469   00445A  1A2C               	xorwf	___flge@ff2^(0+1280),f,c
  5470   00445C  0E00               	movlw	0
  5471   00445E  1A2D               	xorwf	(___flge@ff2+1)^(0+1280),f,c
  5472   004460  0E00               	movlw	0
  5473   004462  1A2E               	xorwf	(___flge@ff2+2)^(0+1280),f,c
  5474   004464  0E80               	movlw	128
  5475   004466  1A2F               	xorwf	(___flge@ff2+3)^(0+1280),f,c
  5476   004468  502C               	movf	___flge@ff2^(0+1280),w,c
  5477   00446A  5C28               	subwf	___flge@ff1^(0+1280),w,c
  5478   00446C  502D               	movf	(___flge@ff2+1)^(0+1280),w,c
  5479   00446E  5829               	subwfb	(___flge@ff1+1)^(0+1280),w,c
  5480   004470  502E               	movf	(___flge@ff2+2)^(0+1280),w,c
  5481   004472  582A               	subwfb	(___flge@ff1+2)^(0+1280),w,c
  5482   004474  502F               	movf	(___flge@ff2+3)^(0+1280),w,c
  5483   004476  582B               	subwfb	(___flge@ff1+3)^(0+1280),w,c
  5484   004478  B0D8               	btfsc	status,0,c
  5485   00447A  EF41  F022         	goto	i2u264_41
  5486   00447E  EF43  F022         	goto	i2u264_40
  5487   004482                     i2u264_41:
  5488   004482  EF46  F022         	goto	i2l2811
  5489   004486                     i2u264_40:
  5490   004486  90D8               	bcf	status,0,c
  5491   004488  EF47  F022         	goto	i2l467
  5492   00448C                     i2l2811:
  5493   00448C  80D8               	bsf	status,0,c
  5494   00448E                     i2l467:
  5495   00448E  0012               	return		;funcret
  5496   004490                     __end_of___flge:
  5497                           	callstack 0
  5498                           
  5499 ;; *************** function ___fleq *****************
  5500 ;; Defined at:
  5501 ;;		line 4 in file "D:\XC8\pic\sources\c99\common\fleq.c"
  5502 ;; Parameters:    Size  Location     Type
  5503 ;;  ff1             4    0[COMRAM] unsigned char 
  5504 ;;  ff2             4    4[COMRAM] unsigned char 
  5505 ;; Auto vars:     Size  Location     Type
  5506 ;;		None
  5507 ;; Return value:  Size  Location     Type
  5508 ;;		None               void
  5509 ;; Registers used:
  5510 ;;		wreg, status,2, status,0
  5511 ;; Tracked objects:
  5512 ;;		On entry : 0/0
  5513 ;;		On exit  : 0/0
  5514 ;;		Unchanged: 0/0
  5515 ;; Data sizes:     COMRAM   BANK5   BANK6   BANK7   BANK8   BANK9  BANK10  BANK11  BANK12  BANK13  BANK14  BANK15  BANK1
      +6  BANK17  BANK18  BANK19  BANK20  BANK21  BANK22  BANK23  BANK24  BANK25  BANK26  BANK27  BANK28  BANK29  BANK30  BANK3
      +1  BANK32  BANK33  BANK34  BANK35  BANK36
  5516 ;;      Params:         8       0       0       0       0       0       0       0       0       0       0       0       
      +0       0       0       0       0       0       0       0       0       0       0       0       0       0       0       
      +0       0       0       0       0       0
  5517 ;;      Locals:         0       0       0       0       0       0       0       0       0       0       0       0       
      +0       0       0       0       0       0       0       0       0       0       0       0       0       0       0       
      +0       0       0       0       0       0
  5518 ;;      Temps:          4       0       0       0       0       0       0       0       0       0       0       0       
      +0       0       0       0       0       0       0       0       0       0       0       0       0       0       0       
      +0       0       0       0       0       0
  5519 ;;      Totals:        12       0       0       0       0       0       0       0       0       0       0       0       
      +0       0       0       0       0       0       0       0       0       0       0       0       0       0       0       
      +0       0       0       0       0       0
  5520 ;;Total ram usage:       12 bytes
  5521 ;; Hardware stack levels used: 1
  5522 ;; This function calls:
  5523 ;;		Nothing
  5524 ;; This function is called by:
  5525 ;;		_efgtoa
  5526 ;; This function uses a non-reentrant model
  5527 ;;
  5528                           
  5529                           	psect	text21
  5530   004748                     __ptext21:
  5531                           	callstack 0
  5532   004748                     ___fleq:
  5533                           	callstack 121
  5534   004748  0E00               	movlw	0
  5535   00474A  1401               	andwf	___fleq@ff1^(0+1280),w,c
  5536   00474C  6E09               	movwf	??___fleq^(0+1280),c
  5537   00474E  0E00               	movlw	0
  5538   004750  1402               	andwf	(___fleq@ff1+1)^(0+1280),w,c
  5539   004752  6E0A               	movwf	(??___fleq+1)^(0+1280),c
  5540   004754  0E80               	movlw	128
  5541   004756  1403               	andwf	(___fleq@ff1+2)^(0+1280),w,c
  5542   004758  6E0B               	movwf	(??___fleq+2)^(0+1280),c
  5543   00475A  0E7F               	movlw	127
  5544   00475C  1404               	andwf	(___fleq@ff1+3)^(0+1280),w,c
  5545   00475E  6E0C               	movwf	(??___fleq+3)^(0+1280),c
  5546   004760  5009               	movf	??___fleq^(0+1280),w,c
  5547   004762  100A               	iorwf	(??___fleq+1)^(0+1280),w,c
  5548   004764  100B               	iorwf	(??___fleq+2)^(0+1280),w,c
  5549   004766  100C               	iorwf	(??___fleq+3)^(0+1280),w,c
  5550   004768  A4D8               	btfss	status,2,c
  5551   00476A  EFB9  F023         	goto	i2u257_41
  5552   00476E  EFBB  F023         	goto	i2u257_40
  5553   004772                     i2u257_41:
  5554   004772  EFC3  F023         	goto	i2l2781
  5555   004776                     i2u257_40:
  5556   004776  0E00               	movlw	0
  5557   004778  6E01               	movwf	___fleq@ff1^(0+1280),c
  5558   00477A  0E00               	movlw	0
  5559   00477C  6E02               	movwf	(___fleq@ff1+1)^(0+1280),c
  5560   00477E  0E00               	movlw	0
  5561   004780  6E03               	movwf	(___fleq@ff1+2)^(0+1280),c
  5562   004782  0E00               	movlw	0
  5563   004784  6E04               	movwf	(___fleq@ff1+3)^(0+1280),c
  5564   004786                     i2l2781:
  5565   004786  0E00               	movlw	0
  5566   004788  1405               	andwf	___fleq@ff2^(0+1280),w,c
  5567   00478A  6E09               	movwf	??___fleq^(0+1280),c
  5568   00478C  0E00               	movlw	0
  5569   00478E  1406               	andwf	(___fleq@ff2+1)^(0+1280),w,c
  5570   004790  6E0A               	movwf	(??___fleq+1)^(0+1280),c
  5571   004792  0E80               	movlw	128
  5572   004794  1407               	andwf	(___fleq@ff2+2)^(0+1280),w,c
  5573   004796  6E0B               	movwf	(??___fleq+2)^(0+1280),c
  5574   004798  0E7F               	movlw	127
  5575   00479A  1408               	andwf	(___fleq@ff2+3)^(0+1280),w,c
  5576   00479C  6E0C               	movwf	(??___fleq+3)^(0+1280),c
  5577   00479E  5009               	movf	??___fleq^(0+1280),w,c
  5578   0047A0  100A               	iorwf	(??___fleq+1)^(0+1280),w,c
  5579   0047A2  100B               	iorwf	(??___fleq+2)^(0+1280),w,c
  5580   0047A4  100C               	iorwf	(??___fleq+3)^(0+1280),w,c
  5581   0047A6  A4D8               	btfss	status,2,c
  5582   0047A8  EFD8  F023         	goto	i2u258_41
  5583   0047AC  EFDA  F023         	goto	i2u258_40
  5584   0047B0                     i2u258_41:
  5585   0047B0  EFE2  F023         	goto	i2l2785
  5586   0047B4                     i2u258_40:
  5587   0047B4  0E00               	movlw	0
  5588   0047B6  6E05               	movwf	___fleq@ff2^(0+1280),c
  5589   0047B8  0E00               	movlw	0
  5590   0047BA  6E06               	movwf	(___fleq@ff2+1)^(0+1280),c
  5591   0047BC  0E00               	movlw	0
  5592   0047BE  6E07               	movwf	(___fleq@ff2+2)^(0+1280),c
  5593   0047C0  0E00               	movlw	0
  5594   0047C2  6E08               	movwf	(___fleq@ff2+3)^(0+1280),c
  5595   0047C4                     i2l2785:
  5596   0047C4  5005               	movf	___fleq@ff2^(0+1280),w,c
  5597   0047C6  1801               	xorwf	___fleq@ff1^(0+1280),w,c
  5598   0047C8  E10F               	bnz	i2u259_40
  5599   0047CA  5006               	movf	(___fleq@ff2+1)^(0+1280),w,c
  5600   0047CC  1802               	xorwf	(___fleq@ff1+1)^(0+1280),w,c
  5601   0047CE  E10C               	bnz	i2u259_40
  5602   0047D0  5007               	movf	(___fleq@ff2+2)^(0+1280),w,c
  5603   0047D2  1803               	xorwf	(___fleq@ff1+2)^(0+1280),w,c
  5604   0047D4  E109               	bnz	i2u259_40
  5605   0047D6  5008               	movf	(___fleq@ff2+3)^(0+1280),w,c
  5606   0047D8  1804               	xorwf	(___fleq@ff1+3)^(0+1280),w,c
  5607   0047DA  B4D8               	btfsc	status,2,c
  5608   0047DC  EFF2  F023         	goto	i2u259_41
  5609   0047E0  EFF4  F023         	goto	i2u259_40
  5610   0047E4                     i2u259_41:
  5611   0047E4  EFF7  F023         	goto	i2l2789
  5612   0047E8                     i2u259_40:
  5613   0047E8  90D8               	bcf	status,0,c
  5614   0047EA  EFF8  F023         	goto	i2l456
  5615   0047EE                     i2l2789:
  5616   0047EE  80D8               	bsf	status,0,c
  5617   0047F0                     i2l456:
  5618   0047F0  0012               	return		;funcret
  5619   0047F2                     __end_of___fleq:
  5620                           	callstack 0
  5621                           
  5622 ;; *************** function ___fldiv *****************
  5623 ;; Defined at:
  5624 ;;		line 11 in file "D:\XC8\pic\sources\c99\common\sprcdiv.c"
  5625 ;; Parameters:    Size  Location     Type
  5626 ;;  b               4    0[COMRAM] unsigned char 
  5627 ;;  a               4    4[COMRAM] unsigned char 
  5628 ;; Auto vars:     Size  Location     Type
  5629 ;;  grs             4   19[COMRAM] unsigned long 
  5630 ;;  rem             4   12[COMRAM] unsigned long 
  5631 ;;  new_exp         2   17[COMRAM] short 
  5632 ;;  aexp            1   24[COMRAM] unsigned char 
  5633 ;;  bexp            1   23[COMRAM] unsigned char 
  5634 ;;  sign            1   16[COMRAM] unsigned char 
  5635 ;; Return value:  Size  Location     Type
  5636 ;;                  4    0[COMRAM] unsigned char 
  5637 ;; Registers used:
  5638 ;;		wreg, status,2, status,0
  5639 ;; Tracked objects:
  5640 ;;		On entry : 0/0
  5641 ;;		On exit  : 0/0
  5642 ;;		Unchanged: 0/0
  5643 ;; Data sizes:     COMRAM   BANK5   BANK6   BANK7   BANK8   BANK9  BANK10  BANK11  BANK12  BANK13  BANK14  BANK15  BANK1
      +6  BANK17  BANK18  BANK19  BANK20  BANK21  BANK22  BANK23  BANK24  BANK25  BANK26  BANK27  BANK28  BANK29  BANK30  BANK3
      +1  BANK32  BANK33  BANK34  BANK35  BANK36
  5644 ;;      Params:         8       0       0       0       0       0       0       0       0       0       0       0       
      +0       0       0       0       0       0       0       0       0       0       0       0       0       0       0       
      +0       0       0       0       0       0
  5645 ;;      Locals:        13       0       0       0       0       0       0       0       0       0       0       0       
      +0       0       0       0       0       0       0       0       0       0       0       0       0       0       0       
      +0       0       0       0       0       0
  5646 ;;      Temps:          4       0       0       0       0       0       0       0       0       0       0       0       
      +0       0       0       0       0       0       0       0       0       0       0       0       0       0       0       
      +0       0       0       0       0       0
  5647 ;;      Totals:        25       0       0       0       0       0       0       0       0       0       0       0       
      +0       0       0       0       0       0       0       0       0       0       0       0       0       0       0       
      +0       0       0       0       0       0
  5648 ;;Total ram usage:       25 bytes
  5649 ;; Hardware stack levels used: 1
  5650 ;; This function calls:
  5651 ;;		Nothing
  5652 ;; This function is called by:
  5653 ;;		_efgtoa
  5654 ;; This function uses a non-reentrant model
  5655 ;;
  5656                           
  5657                           	psect	text22
  5658   0038F6                     __ptext22:
  5659                           	callstack 0
  5660   0038F6                     ___fldiv:
  5661                           	callstack 121
  5662   0038F6  5004               	movf	(___fldiv@b+3)^(0+1280),w,c
  5663   0038F8  0B80               	andlw	128
  5664   0038FA  6E11               	movwf	___fldiv@sign^(0+1280),c
  5665   0038FC  5004               	movf	(___fldiv@b+3)^(0+1280),w,c
  5666   0038FE  2404               	addwf	(___fldiv@b+3)^(0+1280),w,c
  5667   003900  6E18               	movwf	___fldiv@bexp^(0+1280),c
  5668   003902  AE03               	btfss	(___fldiv@b+2)^(0+1280),7,c
  5669   003904  EF86  F01C         	goto	i2u215_41
  5670   003908  EF88  F01C         	goto	i2u215_40
  5671   00390C                     i2u215_41:
  5672   00390C  EF89  F01C         	goto	i2l2509
  5673   003910                     i2u215_40:
  5674   003910  8018               	bsf	___fldiv@bexp^(0+1280),0,c
  5675   003912                     i2l2509:
  5676   003912  5018               	movf	___fldiv@bexp^(0+1280),w,c
  5677   003914  B4D8               	btfsc	status,2,c
  5678   003916  EF8F  F01C         	goto	i2u216_41
  5679   00391A  EF91  F01C         	goto	i2u216_40
  5680   00391E                     i2u216_41:
  5681   00391E  EFA6  F01C         	goto	i2l2519
  5682   003922                     i2u216_40:
  5683   003922  2818               	incf	___fldiv@bexp^(0+1280),w,c
  5684   003924  A4D8               	btfss	status,2,c
  5685   003926  EF97  F01C         	goto	i2u217_41
  5686   00392A  EF99  F01C         	goto	i2u217_40
  5687   00392E                     i2u217_41:
  5688   00392E  EFA1  F01C         	goto	i2l2515
  5689   003932                     i2u217_40:
  5690   003932  0E00               	movlw	0
  5691   003934  6E01               	movwf	___fldiv@b^(0+1280),c
  5692   003936  0E00               	movlw	0
  5693   003938  6E02               	movwf	(___fldiv@b+1)^(0+1280),c
  5694   00393A  0E00               	movlw	0
  5695   00393C  6E03               	movwf	(___fldiv@b+2)^(0+1280),c
  5696   00393E  0E00               	movlw	0
  5697   003940  6E04               	movwf	(___fldiv@b+3)^(0+1280),c
  5698   003942                     i2l2515:
  5699   003942  8E03               	bsf	(___fldiv@b+2)^(0+1280),7,c
  5700   003944  0E00               	movlw	0
  5701   003946  6E04               	movwf	(___fldiv@b+3)^(0+1280),c
  5702   003948  EFAE  F01C         	goto	i2l2521
  5703   00394C                     i2l2519:
  5704   00394C  0E00               	movlw	0
  5705   00394E  6E01               	movwf	___fldiv@b^(0+1280),c
  5706   003950  0E00               	movlw	0
  5707   003952  6E02               	movwf	(___fldiv@b+1)^(0+1280),c
  5708   003954  0E00               	movlw	0
  5709   003956  6E03               	movwf	(___fldiv@b+2)^(0+1280),c
  5710   003958  0E00               	movlw	0
  5711   00395A  6E04               	movwf	(___fldiv@b+3)^(0+1280),c
  5712   00395C                     i2l2521:
  5713   00395C  5008               	movf	(___fldiv@a+3)^(0+1280),w,c
  5714   00395E  0B80               	andlw	128
  5715   003960  1A11               	xorwf	___fldiv@sign^(0+1280),f,c
  5716   003962  5008               	movf	(___fldiv@a+3)^(0+1280),w,c
  5717   003964  2408               	addwf	(___fldiv@a+3)^(0+1280),w,c
  5718   003966  6E19               	movwf	___fldiv@aexp^(0+1280),c
  5719   003968  AE07               	btfss	(___fldiv@a+2)^(0+1280),7,c
  5720   00396A  EFB9  F01C         	goto	i2u218_41
  5721   00396E  EFBB  F01C         	goto	i2u218_40
  5722   003972                     i2u218_41:
  5723   003972  EFBC  F01C         	goto	i2l2529
  5724   003976                     i2u218_40:
  5725   003976  8019               	bsf	___fldiv@aexp^(0+1280),0,c
  5726   003978                     i2l2529:
  5727   003978  5019               	movf	___fldiv@aexp^(0+1280),w,c
  5728   00397A  B4D8               	btfsc	status,2,c
  5729   00397C  EFC2  F01C         	goto	i2u219_41
  5730   003980  EFC4  F01C         	goto	i2u219_40
  5731   003984                     i2u219_41:
  5732   003984  EFD9  F01C         	goto	i2l2539
  5733   003988                     i2u219_40:
  5734   003988  2819               	incf	___fldiv@aexp^(0+1280),w,c
  5735   00398A  A4D8               	btfss	status,2,c
  5736   00398C  EFCA  F01C         	goto	i2u220_41
  5737   003990  EFCC  F01C         	goto	i2u220_40
  5738   003994                     i2u220_41:
  5739   003994  EFD4  F01C         	goto	i2l2535
  5740   003998                     i2u220_40:
  5741   003998  0E00               	movlw	0
  5742   00399A  6E05               	movwf	___fldiv@a^(0+1280),c
  5743   00399C  0E00               	movlw	0
  5744   00399E  6E06               	movwf	(___fldiv@a+1)^(0+1280),c
  5745   0039A0  0E00               	movlw	0
  5746   0039A2  6E07               	movwf	(___fldiv@a+2)^(0+1280),c
  5747   0039A4  0E00               	movlw	0
  5748   0039A6  6E08               	movwf	(___fldiv@a+3)^(0+1280),c
  5749   0039A8                     i2l2535:
  5750   0039A8  8E07               	bsf	(___fldiv@a+2)^(0+1280),7,c
  5751   0039AA  0E00               	movlw	0
  5752   0039AC  6E08               	movwf	(___fldiv@a+3)^(0+1280),c
  5753   0039AE  EFE1  F01C         	goto	i2l2541
  5754   0039B2                     i2l2539:
  5755   0039B2  0E00               	movlw	0
  5756   0039B4  6E05               	movwf	___fldiv@a^(0+1280),c
  5757   0039B6  0E00               	movlw	0
  5758   0039B8  6E06               	movwf	(___fldiv@a+1)^(0+1280),c
  5759   0039BA  0E00               	movlw	0
  5760   0039BC  6E07               	movwf	(___fldiv@a+2)^(0+1280),c
  5761   0039BE  0E00               	movlw	0
  5762   0039C0  6E08               	movwf	(___fldiv@a+3)^(0+1280),c
  5763   0039C2                     i2l2541:
  5764   0039C2  5005               	movf	___fldiv@a^(0+1280),w,c
  5765   0039C4  1006               	iorwf	(___fldiv@a+1)^(0+1280),w,c
  5766   0039C6  1007               	iorwf	(___fldiv@a+2)^(0+1280),w,c
  5767   0039C8  1008               	iorwf	(___fldiv@a+3)^(0+1280),w,c
  5768   0039CA  A4D8               	btfss	status,2,c
  5769   0039CC  EFEA  F01C         	goto	i2u221_41
  5770   0039D0  EFEC  F01C         	goto	i2u221_40
  5771   0039D4                     i2u221_41:
  5772   0039D4  EF04  F01D         	goto	i2l2553
  5773   0039D8                     i2u221_40:
  5774   0039D8  0E00               	movlw	0
  5775   0039DA  6E01               	movwf	___fldiv@b^(0+1280),c
  5776   0039DC  0E00               	movlw	0
  5777   0039DE  6E02               	movwf	(___fldiv@b+1)^(0+1280),c
  5778   0039E0  0E00               	movlw	0
  5779   0039E2  6E03               	movwf	(___fldiv@b+2)^(0+1280),c
  5780   0039E4  0E00               	movlw	0
  5781   0039E6  6E04               	movwf	(___fldiv@b+3)^(0+1280),c
  5782   0039E8  0E80               	movlw	128
  5783   0039EA  1203               	iorwf	(___fldiv@b+2)^(0+1280),f,c
  5784   0039EC  0E7F               	movlw	127
  5785   0039EE  1204               	iorwf	(___fldiv@b+3)^(0+1280),f,c
  5786   0039F0                     i2l2547:
  5787   0039F0  5011               	movf	___fldiv@sign^(0+1280),w,c
  5788   0039F2  1204               	iorwf	(___fldiv@b+3)^(0+1280),f,c
  5789   0039F4  C501  F501         	movff	___fldiv@b,?___fldiv
  5790   0039F8  C502  F502         	movff	___fldiv@b+1,?___fldiv+1
  5791   0039FC  C503  F503         	movff	___fldiv@b+2,?___fldiv+2
  5792   003A00  C504  F504         	movff	___fldiv@b+3,?___fldiv+3
  5793   003A04  EF47  F01E         	goto	i2l779
  5794   003A08                     i2l2553:
  5795   003A08  5018               	movf	___fldiv@bexp^(0+1280),w,c
  5796   003A0A  A4D8               	btfss	status,2,c
  5797   003A0C  EF0A  F01D         	goto	i2u222_41
  5798   003A10  EF0C  F01D         	goto	i2u222_40
  5799   003A14                     i2u222_41:
  5800   003A14  EF16  F01D         	goto	i2l2561
  5801   003A18                     i2u222_40:
  5802   003A18  0E00               	movlw	0
  5803   003A1A  6E01               	movwf	?___fldiv^(0+1280),c
  5804   003A1C  0E00               	movlw	0
  5805   003A1E  6E02               	movwf	(?___fldiv+1)^(0+1280),c
  5806   003A20  0E00               	movlw	0
  5807   003A22  6E03               	movwf	(?___fldiv+2)^(0+1280),c
  5808   003A24  0E00               	movlw	0
  5809   003A26  6E04               	movwf	(?___fldiv+3)^(0+1280),c
  5810   003A28  EF47  F01E         	goto	i2l779
  5811   003A2C                     i2l2561:
  5812   003A2C  5019               	movf	___fldiv@aexp^(0+1280),w,c
  5813   003A2E  C518  F509         	movff	___fldiv@bexp,??___fldiv
  5814   003A32  6A0A               	clrf	(??___fldiv+1)^(0+1280),c
  5815   003A34  5E09               	subwf	??___fldiv^(0+1280),f,c
  5816   003A36  0E00               	movlw	0
  5817   003A38  5A0A               	subwfb	(??___fldiv+1)^(0+1280),f,c
  5818   003A3A  0E7F               	movlw	127
  5819   003A3C  2409               	addwf	??___fldiv^(0+1280),w,c
  5820   003A3E  6E12               	movwf	___fldiv@new_exp^(0+1280),c
  5821   003A40  0E00               	movlw	0
  5822   003A42  200A               	addwfc	(??___fldiv+1)^(0+1280),w,c
  5823   003A44  6E13               	movwf	(___fldiv@new_exp+1)^(0+1280),c
  5824   003A46  C501  F50D         	movff	___fldiv@b,___fldiv@rem
  5825   003A4A  C502  F50E         	movff	___fldiv@b+1,___fldiv@rem+1
  5826   003A4E  C503  F50F         	movff	___fldiv@b+2,___fldiv@rem+2
  5827   003A52  C504  F510         	movff	___fldiv@b+3,___fldiv@rem+3
  5828   003A56  0E00               	movlw	0
  5829   003A58  6E01               	movwf	___fldiv@b^(0+1280),c
  5830   003A5A  0E00               	movlw	0
  5831   003A5C  6E02               	movwf	(___fldiv@b+1)^(0+1280),c
  5832   003A5E  0E00               	movlw	0
  5833   003A60  6E03               	movwf	(___fldiv@b+2)^(0+1280),c
  5834   003A62  0E00               	movlw	0
  5835   003A64  6E04               	movwf	(___fldiv@b+3)^(0+1280),c
  5836   003A66  0E00               	movlw	0
  5837   003A68  6E14               	movwf	___fldiv@grs^(0+1280),c
  5838   003A6A  0E00               	movlw	0
  5839   003A6C  6E15               	movwf	(___fldiv@grs+1)^(0+1280),c
  5840   003A6E  0E00               	movlw	0
  5841   003A70  6E16               	movwf	(___fldiv@grs+2)^(0+1280),c
  5842   003A72  0E00               	movlw	0
  5843   003A74  6E17               	movwf	(___fldiv@grs+3)^(0+1280),c
  5844   003A76  0E00               	movlw	0
  5845   003A78  6E19               	movwf	___fldiv@aexp^(0+1280),c
  5846   003A7A  EF77  F01D         	goto	i2l781
  5847   003A7E                     i2l2571:
  5848   003A7E  5019               	movf	___fldiv@aexp^(0+1280),w,c
  5849   003A80  B4D8               	btfsc	status,2,c
  5850   003A82  EF45  F01D         	goto	i2u223_41
  5851   003A86  EF47  F01D         	goto	i2u223_40
  5852   003A8A                     i2u223_41:
  5853   003A8A  EF5E  F01D         	goto	i2l2579
  5854   003A8E                     i2u223_40:
  5855   003A8E  90D8               	bcf	status,0,c
  5856   003A90  360D               	rlcf	___fldiv@rem^(0+1280),f,c
  5857   003A92  360E               	rlcf	(___fldiv@rem+1)^(0+1280),f,c
  5858   003A94  360F               	rlcf	(___fldiv@rem+2)^(0+1280),f,c
  5859   003A96  3610               	rlcf	(___fldiv@rem+3)^(0+1280),f,c
  5860   003A98  90D8               	bcf	status,0,c
  5861   003A9A  3601               	rlcf	___fldiv@b^(0+1280),f,c
  5862   003A9C  3602               	rlcf	(___fldiv@b+1)^(0+1280),f,c
  5863   003A9E  3603               	rlcf	(___fldiv@b+2)^(0+1280),f,c
  5864   003AA0  3604               	rlcf	(___fldiv@b+3)^(0+1280),f,c
  5865   003AA2  AE17               	btfss	(___fldiv@grs+3)^(0+1280),7,c
  5866   003AA4  EF56  F01D         	goto	i2u224_41
  5867   003AA8  EF58  F01D         	goto	i2u224_40
  5868   003AAC                     i2u224_41:
  5869   003AAC  EF59  F01D         	goto	i2l784
  5870   003AB0                     i2u224_40:
  5871   003AB0  8001               	bsf	___fldiv@b^(0+1280),0,c
  5872   003AB2                     i2l784:
  5873   003AB2  90D8               	bcf	status,0,c
  5874   003AB4  3614               	rlcf	___fldiv@grs^(0+1280),f,c
  5875   003AB6  3615               	rlcf	(___fldiv@grs+1)^(0+1280),f,c
  5876   003AB8  3616               	rlcf	(___fldiv@grs+2)^(0+1280),f,c
  5877   003ABA  3617               	rlcf	(___fldiv@grs+3)^(0+1280),f,c
  5878   003ABC                     i2l2579:
  5879   003ABC  5005               	movf	___fldiv@a^(0+1280),w,c
  5880   003ABE  5C0D               	subwf	___fldiv@rem^(0+1280),w,c
  5881   003AC0  5006               	movf	(___fldiv@a+1)^(0+1280),w,c
  5882   003AC2  580E               	subwfb	(___fldiv@rem+1)^(0+1280),w,c
  5883   003AC4  5007               	movf	(___fldiv@a+2)^(0+1280),w,c
  5884   003AC6  580F               	subwfb	(___fldiv@rem+2)^(0+1280),w,c
  5885   003AC8  5008               	movf	(___fldiv@a+3)^(0+1280),w,c
  5886   003ACA  5810               	subwfb	(___fldiv@rem+3)^(0+1280),w,c
  5887   003ACC  A0D8               	btfss	status,0,c
  5888   003ACE  EF6B  F01D         	goto	i2u225_41
  5889   003AD2  EF6D  F01D         	goto	i2u225_40
  5890   003AD6                     i2u225_41:
  5891   003AD6  EF76  F01D         	goto	i2l2585
  5892   003ADA                     i2u225_40:
  5893   003ADA  8C17               	bsf	(___fldiv@grs+3)^(0+1280),6,c
  5894   003ADC  5005               	movf	___fldiv@a^(0+1280),w,c
  5895   003ADE  5E0D               	subwf	___fldiv@rem^(0+1280),f,c
  5896   003AE0  5006               	movf	(___fldiv@a+1)^(0+1280),w,c
  5897   003AE2  5A0E               	subwfb	(___fldiv@rem+1)^(0+1280),f,c
  5898   003AE4  5007               	movf	(___fldiv@a+2)^(0+1280),w,c
  5899   003AE6  5A0F               	subwfb	(___fldiv@rem+2)^(0+1280),f,c
  5900   003AE8  5008               	movf	(___fldiv@a+3)^(0+1280),w,c
  5901   003AEA  5A10               	subwfb	(___fldiv@rem+3)^(0+1280),f,c
  5902   003AEC                     i2l2585:
  5903   003AEC  2A19               	incf	___fldiv@aexp^(0+1280),f,c
  5904   003AEE                     i2l781:
  5905   003AEE  0E19               	movlw	25
  5906   003AF0  6419               	cpfsgt	___fldiv@aexp^(0+1280),c
  5907   003AF2  EF7D  F01D         	goto	i2u226_41
  5908   003AF6  EF7F  F01D         	goto	i2u226_40
  5909   003AFA                     i2u226_41:
  5910   003AFA  EF3F  F01D         	goto	i2l2571
  5911   003AFE                     i2u226_40:
  5912   003AFE  500D               	movf	___fldiv@rem^(0+1280),w,c
  5913   003B00  100E               	iorwf	(___fldiv@rem+1)^(0+1280),w,c
  5914   003B02  100F               	iorwf	(___fldiv@rem+2)^(0+1280),w,c
  5915   003B04  1010               	iorwf	(___fldiv@rem+3)^(0+1280),w,c
  5916   003B06  B4D8               	btfsc	status,2,c
  5917   003B08  EF88  F01D         	goto	i2u227_41
  5918   003B0C  EF8A  F01D         	goto	i2u227_40
  5919   003B10                     i2u227_41:
  5920   003B10  EFA2  F01D         	goto	i2l2597
  5921   003B14                     i2u227_40:
  5922   003B14  8014               	bsf	___fldiv@grs^(0+1280),0,c
  5923   003B16  EFA2  F01D         	goto	i2l2597
  5924   003B1A                     i2l2591:
  5925   003B1A  90D8               	bcf	status,0,c
  5926   003B1C  3601               	rlcf	___fldiv@b^(0+1280),f,c
  5927   003B1E  3602               	rlcf	(___fldiv@b+1)^(0+1280),f,c
  5928   003B20  3603               	rlcf	(___fldiv@b+2)^(0+1280),f,c
  5929   003B22  3604               	rlcf	(___fldiv@b+3)^(0+1280),f,c
  5930   003B24  AE17               	btfss	(___fldiv@grs+3)^(0+1280),7,c
  5931   003B26  EF97  F01D         	goto	i2u228_41
  5932   003B2A  EF99  F01D         	goto	i2u228_40
  5933   003B2E                     i2u228_41:
  5934   003B2E  EF9A  F01D         	goto	i2l790
  5935   003B32                     i2u228_40:
  5936   003B32  8001               	bsf	___fldiv@b^(0+1280),0,c
  5937   003B34                     i2l790:
  5938   003B34  90D8               	bcf	status,0,c
  5939   003B36  3614               	rlcf	___fldiv@grs^(0+1280),f,c
  5940   003B38  3615               	rlcf	(___fldiv@grs+1)^(0+1280),f,c
  5941   003B3A  3616               	rlcf	(___fldiv@grs+2)^(0+1280),f,c
  5942   003B3C  3617               	rlcf	(___fldiv@grs+3)^(0+1280),f,c
  5943   003B3E  0612               	decf	___fldiv@new_exp^(0+1280),f,c
  5944   003B40  A0D8               	btfss	status,0,c
  5945   003B42  0613               	decf	(___fldiv@new_exp+1)^(0+1280),f,c
  5946   003B44                     i2l2597:
  5947   003B44  AE03               	btfss	(___fldiv@b+2)^(0+1280),7,c
  5948   003B46  EFA7  F01D         	goto	i2u229_41
  5949   003B4A  EFA9  F01D         	goto	i2u229_40
  5950   003B4E                     i2u229_41:
  5951   003B4E  EF8D  F01D         	goto	i2l2591
  5952   003B52                     i2u229_40:
  5953   003B52  0E00               	movlw	0
  5954   003B54  6E19               	movwf	___fldiv@aexp^(0+1280),c
  5955   003B56  AE17               	btfss	(___fldiv@grs+3)^(0+1280),7,c
  5956   003B58  EFB0  F01D         	goto	i2u230_41
  5957   003B5C  EFB2  F01D         	goto	i2u230_40
  5958   003B60                     i2u230_41:
  5959   003B60  EFD6  F01D         	goto	i2l792
  5960   003B64                     i2u230_40:
  5961   003B64  0EFF               	movlw	255
  5962   003B66  1414               	andwf	___fldiv@grs^(0+1280),w,c
  5963   003B68  6E09               	movwf	??___fldiv^(0+1280),c
  5964   003B6A  0EFF               	movlw	255
  5965   003B6C  1415               	andwf	(___fldiv@grs+1)^(0+1280),w,c
  5966   003B6E  6E0A               	movwf	(??___fldiv+1)^(0+1280),c
  5967   003B70  0EFF               	movlw	255
  5968   003B72  1416               	andwf	(___fldiv@grs+2)^(0+1280),w,c
  5969   003B74  6E0B               	movwf	(??___fldiv+2)^(0+1280),c
  5970   003B76  0E7F               	movlw	127
  5971   003B78  1417               	andwf	(___fldiv@grs+3)^(0+1280),w,c
  5972   003B7A  6E0C               	movwf	(??___fldiv+3)^(0+1280),c
  5973   003B7C  5009               	movf	??___fldiv^(0+1280),w,c
  5974   003B7E  100A               	iorwf	(??___fldiv+1)^(0+1280),w,c
  5975   003B80  100B               	iorwf	(??___fldiv+2)^(0+1280),w,c
  5976   003B82  100C               	iorwf	(??___fldiv+3)^(0+1280),w,c
  5977   003B84  B4D8               	btfsc	status,2,c
  5978   003B86  EFC7  F01D         	goto	i2u231_41
  5979   003B8A  EFC9  F01D         	goto	i2u231_40
  5980   003B8E                     i2u231_41:
  5981   003B8E  EFCD  F01D         	goto	i2l793
  5982   003B92                     i2u231_40:
  5983   003B92                     i2l2605:
  5984   003B92  0E01               	movlw	1
  5985   003B94  6E19               	movwf	___fldiv@aexp^(0+1280),c
  5986   003B96  EFD6  F01D         	goto	i2l792
  5987   003B9A                     i2l793:
  5988   003B9A  A001               	btfss	___fldiv@b^(0+1280),0,c
  5989   003B9C  EFD2  F01D         	goto	i2u232_41
  5990   003BA0  EFD4  F01D         	goto	i2u232_40
  5991   003BA4                     i2u232_41:
  5992   003BA4  EFD6  F01D         	goto	i2l792
  5993   003BA8                     i2u232_40:
  5994   003BA8  EFC9  F01D         	goto	i2l2605
  5995   003BAC                     i2l792:
  5996   003BAC  5019               	movf	___fldiv@aexp^(0+1280),w,c
  5997   003BAE  B4D8               	btfsc	status,2,c
  5998   003BB0  EFDC  F01D         	goto	i2u233_41
  5999   003BB4  EFDE  F01D         	goto	i2u233_40
  6000   003BB8                     i2u233_41:
  6001   003BB8  EF02  F01E         	goto	i2l2617
  6002   003BBC                     i2u233_40:
  6003   003BBC  0E01               	movlw	1
  6004   003BBE  2601               	addwf	___fldiv@b^(0+1280),f,c
  6005   003BC0  0E00               	movlw	0
  6006   003BC2  2202               	addwfc	(___fldiv@b+1)^(0+1280),f,c
  6007   003BC4  2203               	addwfc	(___fldiv@b+2)^(0+1280),f,c
  6008   003BC6  2204               	addwfc	(___fldiv@b+3)^(0+1280),f,c
  6009   003BC8  A004               	btfss	(___fldiv@b+3)^(0+1280),0,c
  6010   003BCA  EFE9  F01D         	goto	i2u234_41
  6011   003BCE  EFEB  F01D         	goto	i2u234_40
  6012   003BD2                     i2u234_41:
  6013   003BD2  EF02  F01E         	goto	i2l2617
  6014   003BD6                     i2u234_40:
  6015   003BD6  C501  F509         	movff	___fldiv@b,??___fldiv
  6016   003BDA  C502  F50A         	movff	___fldiv@b+1,??___fldiv+1
  6017   003BDE  C503  F50B         	movff	___fldiv@b+2,??___fldiv+2
  6018   003BE2  C504  F50C         	movff	___fldiv@b+3,??___fldiv+3
  6019   003BE6  340C               	rlcf	(??___fldiv+3)^(0+1280),w,c
  6020   003BE8  320C               	rrcf	(??___fldiv+3)^(0+1280),f,c
  6021   003BEA  320B               	rrcf	(??___fldiv+2)^(0+1280),f,c
  6022   003BEC  320A               	rrcf	(??___fldiv+1)^(0+1280),f,c
  6023   003BEE  3209               	rrcf	??___fldiv^(0+1280),f,c
  6024   003BF0  C509  F501         	movff	??___fldiv,___fldiv@b
  6025   003BF4  C50A  F502         	movff	??___fldiv+1,___fldiv@b+1
  6026   003BF8  C50B  F503         	movff	??___fldiv+2,___fldiv@b+2
  6027   003BFC  C50C  F504         	movff	??___fldiv+3,___fldiv@b+3
  6028   003C00  4A12               	infsnz	___fldiv@new_exp^(0+1280),f,c
  6029   003C02  2A13               	incf	(___fldiv@new_exp+1)^(0+1280),f,c
  6030   003C04                     i2l2617:
  6031   003C04  BE13               	btfsc	(___fldiv@new_exp+1)^(0+1280),7,c
  6032   003C06  EF0D  F01E         	goto	i2u235_41
  6033   003C0A  5013               	movf	(___fldiv@new_exp+1)^(0+1280),w,c
  6034   003C0C  E108               	bnz	i2u235_40
  6035   003C0E  2812               	incf	___fldiv@new_exp^(0+1280),w,c
  6036   003C10  A0D8               	btfss	status,0,c
  6037   003C12  EF0D  F01E         	goto	i2u235_41
  6038   003C16  EF0F  F01E         	goto	i2u235_40
  6039   003C1A                     i2u235_41:
  6040   003C1A  EF1A  F01E         	goto	i2l2621
  6041   003C1E                     i2u235_40:
  6042   003C1E  0E00               	movlw	0
  6043   003C20  6E13               	movwf	(___fldiv@new_exp+1)^(0+1280),c
  6044   003C22  6812               	setf	___fldiv@new_exp^(0+1280),c
  6045   003C24  0E00               	movlw	0
  6046   003C26  6E01               	movwf	___fldiv@b^(0+1280),c
  6047   003C28  0E00               	movlw	0
  6048   003C2A  6E02               	movwf	(___fldiv@b+1)^(0+1280),c
  6049   003C2C  0E00               	movlw	0
  6050   003C2E  6E03               	movwf	(___fldiv@b+2)^(0+1280),c
  6051   003C30  0E00               	movlw	0
  6052   003C32  6E04               	movwf	(___fldiv@b+3)^(0+1280),c
  6053   003C34                     i2l2621:
  6054   003C34  BE13               	btfsc	(___fldiv@new_exp+1)^(0+1280),7,c
  6055   003C36  EF27  F01E         	goto	i2u236_40
  6056   003C3A  5013               	movf	(___fldiv@new_exp+1)^(0+1280),w,c
  6057   003C3C  E106               	bnz	i2u236_41
  6058   003C3E  0412               	decf	___fldiv@new_exp^(0+1280),w,c
  6059   003C40  B0D8               	btfsc	status,0,c
  6060   003C42  EF25  F01E         	goto	i2u236_41
  6061   003C46  EF27  F01E         	goto	i2u236_40
  6062   003C4A                     i2u236_41:
  6063   003C4A  EF35  F01E         	goto	i2l2625
  6064   003C4E                     i2u236_40:
  6065   003C4E  0E00               	movlw	0
  6066   003C50  6E13               	movwf	(___fldiv@new_exp+1)^(0+1280),c
  6067   003C52  0E00               	movlw	0
  6068   003C54  6E12               	movwf	___fldiv@new_exp^(0+1280),c
  6069   003C56  0E00               	movlw	0
  6070   003C58  6E01               	movwf	___fldiv@b^(0+1280),c
  6071   003C5A  0E00               	movlw	0
  6072   003C5C  6E02               	movwf	(___fldiv@b+1)^(0+1280),c
  6073   003C5E  0E00               	movlw	0
  6074   003C60  6E03               	movwf	(___fldiv@b+2)^(0+1280),c
  6075   003C62  0E00               	movlw	0
  6076   003C64  6E04               	movwf	(___fldiv@b+3)^(0+1280),c
  6077   003C66  0E00               	movlw	0
  6078   003C68  6E11               	movwf	___fldiv@sign^(0+1280),c
  6079   003C6A                     i2l2625:
  6080   003C6A  C512  F518         	movff	___fldiv@new_exp,___fldiv@bexp
  6081   003C6E  A018               	btfss	___fldiv@bexp^(0+1280),0,c
  6082   003C70  EF3C  F01E         	goto	i2u237_41
  6083   003C74  EF3E  F01E         	goto	i2u237_40
  6084   003C78                     i2u237_41:
  6085   003C78  EF41  F01E         	goto	i2l2631
  6086   003C7C                     i2u237_40:
  6087   003C7C  8E03               	bsf	(___fldiv@b+2)^(0+1280),7,c
  6088   003C7E  EF42  F01E         	goto	i2l2633
  6089   003C82                     i2l2631:
  6090   003C82  9E03               	bcf	(___fldiv@b+2)^(0+1280),7,c
  6091   003C84                     i2l2633:
  6092   003C84  90D8               	bcf	status,0,c
  6093   003C86  3018               	rrcf	___fldiv@bexp^(0+1280),w,c
  6094   003C88  6E04               	movwf	(___fldiv@b+3)^(0+1280),c
  6095   003C8A  EFF8  F01C         	goto	i2l2547
  6096   003C8E                     i2l779:
  6097   003C8E  0012               	return		;funcret
  6098   003C90                     __end_of___fldiv:
  6099                           	callstack 0
  6100                           
  6101 ;; *************** function ___xxtofl *****************
  6102 ;; Defined at:
  6103 ;;		line 10 in file "D:\XC8\pic\sources\c99\common\xxtofl.c"
  6104 ;; Parameters:    Size  Location     Type
  6105 ;;  sign            1    wreg     unsigned char 
  6106 ;;  val             4    0[COMRAM] long 
  6107 ;; Auto vars:     Size  Location     Type
  6108 ;;  sign            1    8[COMRAM] unsigned char 
  6109 ;;  arg             4   10[COMRAM] unsigned long 
  6110 ;;  exp             1    9[COMRAM] unsigned char 
  6111 ;; Return value:  Size  Location     Type
  6112 ;;                  4    0[COMRAM] unsigned char 
  6113 ;; Registers used:
  6114 ;;		wreg, status,2, status,0
  6115 ;; Tracked objects:
  6116 ;;		On entry : 0/0
  6117 ;;		On exit  : 0/0
  6118 ;;		Unchanged: 0/0
  6119 ;; Data sizes:     COMRAM   BANK5   BANK6   BANK7   BANK8   BANK9  BANK10  BANK11  BANK12  BANK13  BANK14  BANK15  BANK1
      +6  BANK17  BANK18  BANK19  BANK20  BANK21  BANK22  BANK23  BANK24  BANK25  BANK26  BANK27  BANK28  BANK29  BANK30  BANK3
      +1  BANK32  BANK33  BANK34  BANK35  BANK36
  6120 ;;      Params:         4       0       0       0       0       0       0       0       0       0       0       0       
      +0       0       0       0       0       0       0       0       0       0       0       0       0       0       0       
      +0       0       0       0       0       0
  6121 ;;      Locals:         6       0       0       0       0       0       0       0       0       0       0       0       
      +0       0       0       0       0       0       0       0       0       0       0       0       0       0       0       
      +0       0       0       0       0       0
  6122 ;;      Temps:          4       0       0       0       0       0       0       0       0       0       0       0       
      +0       0       0       0       0       0       0       0       0       0       0       0       0       0       0       
      +0       0       0       0       0       0
  6123 ;;      Totals:        14       0       0       0       0       0       0       0       0       0       0       0       
      +0       0       0       0       0       0       0       0       0       0       0       0       0       0       0       
      +0       0       0       0       0       0
  6124 ;;Total ram usage:       14 bytes
  6125 ;; Hardware stack levels used: 1
  6126 ;; This function calls:
  6127 ;;		Nothing
  6128 ;; This function is called by:
  6129 ;;		_ADC_ISR
  6130 ;; This function uses a non-reentrant model
  6131 ;;
  6132                           
  6133                           	psect	text23
  6134   0040D2                     __ptext23:
  6135                           	callstack 0
  6136   0040D2                     ___xxtofl:
  6137                           	callstack 125
  6138                           
  6139                           ;incstack = 0
  6140                           ;___xxtofl@sign stored from wreg
  6141   0040D2  6E09               	movwf	___xxtofl@sign^(0+1280),c
  6142   0040D4  5009               	movf	___xxtofl@sign^(0+1280),w,c
  6143   0040D6  B4D8               	btfsc	status,2,c
  6144   0040D8  EF70  F020         	goto	i2u330_41
  6145   0040DC  EF72  F020         	goto	i2u330_40
  6146   0040E0                     i2u330_41:
  6147   0040E0  EF94  F020         	goto	i2l852
  6148   0040E4                     i2u330_40:
  6149   0040E4  BE04               	btfsc	(___xxtofl@val+3)^(0+1280),7,c
  6150   0040E6  EF79  F020         	goto	i2u331_40
  6151   0040EA  EF77  F020         	goto	i2u331_41
  6152   0040EE                     i2u331_41:
  6153   0040EE  EF94  F020         	goto	i2l852
  6154   0040F2                     i2u331_40:
  6155   0040F2  C501  F505         	movff	___xxtofl@val,??___xxtofl
  6156   0040F6  C502  F506         	movff	___xxtofl@val+1,??___xxtofl+1
  6157   0040FA  C503  F507         	movff	___xxtofl@val+2,??___xxtofl+2
  6158   0040FE  C504  F508         	movff	___xxtofl@val+3,??___xxtofl+3
  6159   004102  1E05               	comf	??___xxtofl^(0+1280),f,c
  6160   004104  1E06               	comf	(??___xxtofl+1)^(0+1280),f,c
  6161   004106  1E07               	comf	(??___xxtofl+2)^(0+1280),f,c
  6162   004108  1E08               	comf	(??___xxtofl+3)^(0+1280),f,c
  6163   00410A  2A05               	incf	??___xxtofl^(0+1280),f,c
  6164   00410C  0E00               	movlw	0
  6165   00410E  2206               	addwfc	(??___xxtofl+1)^(0+1280),f,c
  6166   004110  2207               	addwfc	(??___xxtofl+2)^(0+1280),f,c
  6167   004112  2208               	addwfc	(??___xxtofl+3)^(0+1280),f,c
  6168   004114  C505  F50B         	movff	??___xxtofl,___xxtofl@arg
  6169   004118  C506  F50C         	movff	??___xxtofl+1,___xxtofl@arg+1
  6170   00411C  C507  F50D         	movff	??___xxtofl+2,___xxtofl@arg+2
  6171   004120  C508  F50E         	movff	??___xxtofl+3,___xxtofl@arg+3
  6172   004124  EF9C  F020         	goto	i2l3283
  6173   004128                     i2l852:
  6174   004128  C501  F50B         	movff	___xxtofl@val,___xxtofl@arg
  6175   00412C  C502  F50C         	movff	___xxtofl@val+1,___xxtofl@arg+1
  6176   004130  C503  F50D         	movff	___xxtofl@val+2,___xxtofl@arg+2
  6177   004134  C504  F50E         	movff	___xxtofl@val+3,___xxtofl@arg+3
  6178   004138                     i2l3283:
  6179   004138  5001               	movf	___xxtofl@val^(0+1280),w,c
  6180   00413A  1002               	iorwf	(___xxtofl@val+1)^(0+1280),w,c
  6181   00413C  1003               	iorwf	(___xxtofl@val+2)^(0+1280),w,c
  6182   00413E  1004               	iorwf	(___xxtofl@val+3)^(0+1280),w,c
  6183   004140  A4D8               	btfss	status,2,c
  6184   004142  EFA5  F020         	goto	i2u332_41
  6185   004146  EFA7  F020         	goto	i2u332_40
  6186   00414A                     i2u332_41:
  6187   00414A  EFB1  F020         	goto	i2l3289
  6188   00414E                     i2u332_40:
  6189   00414E  0E00               	movlw	0
  6190   004150  6E01               	movwf	?___xxtofl^(0+1280),c
  6191   004152  0E00               	movlw	0
  6192   004154  6E02               	movwf	(?___xxtofl+1)^(0+1280),c
  6193   004156  0E00               	movlw	0
  6194   004158  6E03               	movwf	(?___xxtofl+2)^(0+1280),c
  6195   00415A  0E00               	movlw	0
  6196   00415C  6E04               	movwf	(?___xxtofl+3)^(0+1280),c
  6197   00415E  EF42  F021         	goto	i2l855
  6198   004162                     i2l3289:
  6199   004162  0E96               	movlw	150
  6200   004164  6E0A               	movwf	___xxtofl@exp^(0+1280),c
  6201   004166  EFBB  F020         	goto	i2l3293
  6202   00416A                     i2l3291:
  6203   00416A  2A0A               	incf	___xxtofl@exp^(0+1280),f,c
  6204   00416C  90D8               	bcf	status,0,c
  6205   00416E  320E               	rrcf	(___xxtofl@arg+3)^(0+1280),f,c
  6206   004170  320D               	rrcf	(___xxtofl@arg+2)^(0+1280),f,c
  6207   004172  320C               	rrcf	(___xxtofl@arg+1)^(0+1280),f,c
  6208   004174  320B               	rrcf	___xxtofl@arg^(0+1280),f,c
  6209   004176                     i2l3293:
  6210   004176  0E00               	movlw	0
  6211   004178  140B               	andwf	___xxtofl@arg^(0+1280),w,c
  6212   00417A  6E05               	movwf	??___xxtofl^(0+1280),c
  6213   00417C  0E00               	movlw	0
  6214   00417E  140C               	andwf	(___xxtofl@arg+1)^(0+1280),w,c
  6215   004180  6E06               	movwf	(??___xxtofl+1)^(0+1280),c
  6216   004182  0E00               	movlw	0
  6217   004184  140D               	andwf	(___xxtofl@arg+2)^(0+1280),w,c
  6218   004186  6E07               	movwf	(??___xxtofl+2)^(0+1280),c
  6219   004188  0EFE               	movlw	254
  6220   00418A  140E               	andwf	(___xxtofl@arg+3)^(0+1280),w,c
  6221   00418C  6E08               	movwf	(??___xxtofl+3)^(0+1280),c
  6222   00418E  5005               	movf	??___xxtofl^(0+1280),w,c
  6223   004190  1006               	iorwf	(??___xxtofl+1)^(0+1280),w,c
  6224   004192  1007               	iorwf	(??___xxtofl+2)^(0+1280),w,c
  6225   004194  1008               	iorwf	(??___xxtofl+3)^(0+1280),w,c
  6226   004196  A4D8               	btfss	status,2,c
  6227   004198  EFD0  F020         	goto	i2u333_41
  6228   00419C  EFD2  F020         	goto	i2u333_40
  6229   0041A0                     i2u333_41:
  6230   0041A0  EFB5  F020         	goto	i2l3291
  6231   0041A4                     i2u333_40:
  6232   0041A4  EFE0  F020         	goto	i2l859
  6233   0041A8                     i2l3295:
  6234   0041A8  2A0A               	incf	___xxtofl@exp^(0+1280),f,c
  6235   0041AA  0E01               	movlw	1
  6236   0041AC  260B               	addwf	___xxtofl@arg^(0+1280),f,c
  6237   0041AE  0E00               	movlw	0
  6238   0041B0  220C               	addwfc	(___xxtofl@arg+1)^(0+1280),f,c
  6239   0041B2  220D               	addwfc	(___xxtofl@arg+2)^(0+1280),f,c
  6240   0041B4  220E               	addwfc	(___xxtofl@arg+3)^(0+1280),f,c
  6241   0041B6  90D8               	bcf	status,0,c
  6242   0041B8  320E               	rrcf	(___xxtofl@arg+3)^(0+1280),f,c
  6243   0041BA  320D               	rrcf	(___xxtofl@arg+2)^(0+1280),f,c
  6244   0041BC  320C               	rrcf	(___xxtofl@arg+1)^(0+1280),f,c
  6245   0041BE  320B               	rrcf	___xxtofl@arg^(0+1280),f,c
  6246   0041C0                     i2l859:
  6247   0041C0  0E00               	movlw	0
  6248   0041C2  140B               	andwf	___xxtofl@arg^(0+1280),w,c
  6249   0041C4  6E05               	movwf	??___xxtofl^(0+1280),c
  6250   0041C6  0E00               	movlw	0
  6251   0041C8  140C               	andwf	(___xxtofl@arg+1)^(0+1280),w,c
  6252   0041CA  6E06               	movwf	(??___xxtofl+1)^(0+1280),c
  6253   0041CC  0E00               	movlw	0
  6254   0041CE  140D               	andwf	(___xxtofl@arg+2)^(0+1280),w,c
  6255   0041D0  6E07               	movwf	(??___xxtofl+2)^(0+1280),c
  6256   0041D2  0EFF               	movlw	255
  6257   0041D4  140E               	andwf	(___xxtofl@arg+3)^(0+1280),w,c
  6258   0041D6  6E08               	movwf	(??___xxtofl+3)^(0+1280),c
  6259   0041D8  5005               	movf	??___xxtofl^(0+1280),w,c
  6260   0041DA  1006               	iorwf	(??___xxtofl+1)^(0+1280),w,c
  6261   0041DC  1007               	iorwf	(??___xxtofl+2)^(0+1280),w,c
  6262   0041DE  1008               	iorwf	(??___xxtofl+3)^(0+1280),w,c
  6263   0041E0  A4D8               	btfss	status,2,c
  6264   0041E2  EFF5  F020         	goto	i2u334_41
  6265   0041E6  EFF7  F020         	goto	i2u334_40
  6266   0041EA                     i2u334_41:
  6267   0041EA  EFD4  F020         	goto	i2l3295
  6268   0041EE                     i2u334_40:
  6269   0041EE  EFFF  F020         	goto	i2l3303
  6270   0041F2                     i2l3301:
  6271   0041F2  060A               	decf	___xxtofl@exp^(0+1280),f,c
  6272   0041F4  90D8               	bcf	status,0,c
  6273   0041F6  360B               	rlcf	___xxtofl@arg^(0+1280),f,c
  6274   0041F8  360C               	rlcf	(___xxtofl@arg+1)^(0+1280),f,c
  6275   0041FA  360D               	rlcf	(___xxtofl@arg+2)^(0+1280),f,c
  6276   0041FC  360E               	rlcf	(___xxtofl@arg+3)^(0+1280),f,c
  6277   0041FE                     i2l3303:
  6278   0041FE  BE0D               	btfsc	(___xxtofl@arg+2)^(0+1280),7,c
  6279   004200  EF04  F021         	goto	i2u335_41
  6280   004204  EF06  F021         	goto	i2u335_40
  6281   004208                     i2u335_41:
  6282   004208  EF0E  F021         	goto	i2l866
  6283   00420C                     i2u335_40:
  6284   00420C  0E02               	movlw	2
  6285   00420E  600A               	cpfslt	___xxtofl@exp^(0+1280),c
  6286   004210  EF0C  F021         	goto	i2u336_41
  6287   004214  EF0E  F021         	goto	i2u336_40
  6288   004218                     i2u336_41:
  6289   004218  EFF9  F020         	goto	i2l3301
  6290   00421C                     i2u336_40:
  6291   00421C                     i2l866:
  6292   00421C  B00A               	btfsc	___xxtofl@exp^(0+1280),0,c
  6293   00421E  EF13  F021         	goto	i2u337_41
  6294   004222  EF15  F021         	goto	i2u337_40
  6295   004226                     i2u337_41:
  6296   004226  EF16  F021         	goto	i2l3309
  6297   00422A                     i2u337_40:
  6298   00422A  9E0D               	bcf	(___xxtofl@arg+2)^(0+1280),7,c
  6299   00422C                     i2l3309:
  6300   00422C  90D8               	bcf	status,0,c
  6301   00422E  320A               	rrcf	___xxtofl@exp^(0+1280),f,c
  6302   004230  C50A  F505         	movff	___xxtofl@exp,??___xxtofl
  6303   004234  6A06               	clrf	(??___xxtofl+1)^(0+1280),c
  6304   004236  6A07               	clrf	(??___xxtofl+2)^(0+1280),c
  6305   004238  6A08               	clrf	(??___xxtofl+3)^(0+1280),c
  6306   00423A  C505  F508         	movff	??___xxtofl,??___xxtofl+3
  6307   00423E  6A07               	clrf	(??___xxtofl+2)^(0+1280),c
  6308   004240  6A06               	clrf	(??___xxtofl+1)^(0+1280),c
  6309   004242  6A05               	clrf	??___xxtofl^(0+1280),c
  6310   004244  5005               	movf	??___xxtofl^(0+1280),w,c
  6311   004246  120B               	iorwf	___xxtofl@arg^(0+1280),f,c
  6312   004248  5006               	movf	(??___xxtofl+1)^(0+1280),w,c
  6313   00424A  120C               	iorwf	(___xxtofl@arg+1)^(0+1280),f,c
  6314   00424C  5007               	movf	(??___xxtofl+2)^(0+1280),w,c
  6315   00424E  120D               	iorwf	(___xxtofl@arg+2)^(0+1280),f,c
  6316   004250  5008               	movf	(??___xxtofl+3)^(0+1280),w,c
  6317   004252  120E               	iorwf	(___xxtofl@arg+3)^(0+1280),f,c
  6318   004254  5009               	movf	___xxtofl@sign^(0+1280),w,c
  6319   004256  B4D8               	btfsc	status,2,c
  6320   004258  EF30  F021         	goto	i2u338_41
  6321   00425C  EF32  F021         	goto	i2u338_40
  6322   004260                     i2u338_41:
  6323   004260  EF3A  F021         	goto	i2l3319
  6324   004264                     i2u338_40:
  6325   004264  BE04               	btfsc	(___xxtofl@val+3)^(0+1280),7,c
  6326   004266  EF39  F021         	goto	i2u339_40
  6327   00426A  EF37  F021         	goto	i2u339_41
  6328   00426E                     i2u339_41:
  6329   00426E  EF3A  F021         	goto	i2l3319
  6330   004272                     i2u339_40:
  6331   004272  8E0E               	bsf	(___xxtofl@arg+3)^(0+1280),7,c
  6332   004274                     i2l3319:
  6333   004274  C50B  F501         	movff	___xxtofl@arg,?___xxtofl
  6334   004278  C50C  F502         	movff	___xxtofl@arg+1,?___xxtofl+1
  6335   00427C  C50D  F503         	movff	___xxtofl@arg+2,?___xxtofl+2
  6336   004280  C50E  F504         	movff	___xxtofl@arg+3,?___xxtofl+3
  6337   004284                     i2l855:
  6338   004284  0012               	return		;funcret
  6339   004286                     __end_of___xxtofl:
  6340                           	callstack 0
  6341                           
  6342                           ;
  6343                           ; Interrupt Vector Table @ 0x8
  6344                           ;
  6345                           
  6346                           	psect	ivt0x8
  6347   000008                     __pivt0x8:
  6348                           	callstack 0
  6349   000008                     ivt0x8_base:
  6350                           	callstack 0
  6351                           
  6352                           ; high-priority vector
  6353   000008  EFC7  F022         	goto	_ADC_ISR
  6354   000018                     	org	16
  6355                           
  6356                           ; low-priority vector
  6357   000018  00FF               	reset	
  6358                           
  6359                           	psect	rparam
  6360   000000                     
  6361                           	psect	idloc
  6362                           
  6363                           ;Config register IDLOC0 @ 0x200000
  6364                           ;	unspecified, using default values
  6365   200000                     	org	2097152
  6366   200000  0FFF               	dw	4095
  6367                           
  6368                           ;Config register IDLOC1 @ 0x200002
  6369                           ;	unspecified, using default values
  6370   200002                     	org	2097154
  6371   200002  0FFF               	dw	4095
  6372                           
  6373                           ;Config register IDLOC2 @ 0x200004
  6374                           ;	unspecified, using default values
  6375   200004                     	org	2097156
  6376   200004  0FFF               	dw	4095
  6377                           
  6378                           ;Config register IDLOC3 @ 0x200006
  6379                           ;	unspecified, using default values
  6380   200006                     	org	2097158
  6381   200006  0FFF               	dw	4095
  6382                           
  6383                           ;Config register IDLOC4 @ 0x200008
  6384                           ;	unspecified, using default values
  6385   200008                     	org	2097160
  6386   200008  0FFF               	dw	4095
  6387                           
  6388                           ;Config register IDLOC5 @ 0x20000A
  6389                           ;	unspecified, using default values
  6390   20000A                     	org	2097162
  6391   20000A  0FFF               	dw	4095
  6392                           
  6393                           ;Config register IDLOC6 @ 0x20000C
  6394                           ;	unspecified, using default values
  6395   20000C                     	org	2097164
  6396   20000C  0FFF               	dw	4095
  6397                           
  6398                           ;Config register IDLOC7 @ 0x20000E
  6399                           ;	unspecified, using default values
  6400   20000E                     	org	2097166
  6401   20000E  0FFF               	dw	4095
  6402                           
  6403                           ;Config register IDLOC8 @ 0x200010
  6404                           ;	unspecified, using default values
  6405   200010                     	org	2097168
  6406   200010  0FFF               	dw	4095
  6407                           
  6408                           ;Config register IDLOC9 @ 0x200012
  6409                           ;	unspecified, using default values
  6410   200012                     	org	2097170
  6411   200012  0FFF               	dw	4095
  6412                           
  6413                           ;Config register IDLOC10 @ 0x200014
  6414                           ;	unspecified, using default values
  6415   200014                     	org	2097172
  6416   200014  0FFF               	dw	4095
  6417                           
  6418                           ;Config register IDLOC11 @ 0x200016
  6419                           ;	unspecified, using default values
  6420   200016                     	org	2097174
  6421   200016  0FFF               	dw	4095
  6422                           
  6423                           ;Config register IDLOC12 @ 0x200018
  6424                           ;	unspecified, using default values
  6425   200018                     	org	2097176
  6426   200018  0FFF               	dw	4095
  6427                           
  6428                           ;Config register IDLOC13 @ 0x20001A
  6429                           ;	unspecified, using default values
  6430   20001A                     	org	2097178
  6431   20001A  0FFF               	dw	4095
  6432                           
  6433                           ;Config register IDLOC14 @ 0x20001C
  6434                           ;	unspecified, using default values
  6435   20001C                     	org	2097180
  6436   20001C  0FFF               	dw	4095
  6437                           
  6438                           ;Config register IDLOC15 @ 0x20001E
  6439                           ;	unspecified, using default values
  6440   20001E                     	org	2097182
  6441   20001E  0FFF               	dw	4095
  6442                           
  6443                           ;Config register IDLOC16 @ 0x200020
  6444                           ;	unspecified, using default values
  6445   200020                     	org	2097184
  6446   200020  0FFF               	dw	4095
  6447                           
  6448                           ;Config register IDLOC17 @ 0x200022
  6449                           ;	unspecified, using default values
  6450   200022                     	org	2097186
  6451   200022  0FFF               	dw	4095
  6452                           
  6453                           ;Config register IDLOC18 @ 0x200024
  6454                           ;	unspecified, using default values
  6455   200024                     	org	2097188
  6456   200024  0FFF               	dw	4095
  6457                           
  6458                           ;Config register IDLOC19 @ 0x200026
  6459                           ;	unspecified, using default values
  6460   200026                     	org	2097190
  6461   200026  0FFF               	dw	4095
  6462                           
  6463                           ;Config register IDLOC20 @ 0x200028
  6464                           ;	unspecified, using default values
  6465   200028                     	org	2097192
  6466   200028  0FFF               	dw	4095
  6467                           
  6468                           ;Config register IDLOC21 @ 0x20002A
  6469                           ;	unspecified, using default values
  6470   20002A                     	org	2097194
  6471   20002A  0FFF               	dw	4095
  6472                           
  6473                           ;Config register IDLOC22 @ 0x20002C
  6474                           ;	unspecified, using default values
  6475   20002C                     	org	2097196
  6476   20002C  0FFF               	dw	4095
  6477                           
  6478                           ;Config register IDLOC23 @ 0x20002E
  6479                           ;	unspecified, using default values
  6480   20002E                     	org	2097198
  6481   20002E  0FFF               	dw	4095
  6482                           
  6483                           ;Config register IDLOC24 @ 0x200030
  6484                           ;	unspecified, using default values
  6485   200030                     	org	2097200
  6486   200030  0FFF               	dw	4095
  6487                           
  6488                           ;Config register IDLOC25 @ 0x200032
  6489                           ;	unspecified, using default values
  6490   200032                     	org	2097202
  6491   200032  0FFF               	dw	4095
  6492                           
  6493                           ;Config register IDLOC26 @ 0x200034
  6494                           ;	unspecified, using default values
  6495   200034                     	org	2097204
  6496   200034  0FFF               	dw	4095
  6497                           
  6498                           ;Config register IDLOC27 @ 0x200036
  6499                           ;	unspecified, using default values
  6500   200036                     	org	2097206
  6501   200036  0FFF               	dw	4095
  6502                           
  6503                           ;Config register IDLOC28 @ 0x200038
  6504                           ;	unspecified, using default values
  6505   200038                     	org	2097208
  6506   200038  0FFF               	dw	4095
  6507                           
  6508                           ;Config register IDLOC29 @ 0x20003A
  6509                           ;	unspecified, using default values
  6510   20003A                     	org	2097210
  6511   20003A  0FFF               	dw	4095
  6512                           
  6513                           ;Config register IDLOC30 @ 0x20003C
  6514                           ;	unspecified, using default values
  6515   20003C                     	org	2097212
  6516   20003C  0FFF               	dw	4095
  6517                           
  6518                           ;Config register IDLOC31 @ 0x20003E
  6519                           ;	unspecified, using default values
  6520   20003E                     	org	2097214
  6521   20003E  0FFF               	dw	4095
  6522                           
  6523                           	psect	config
  6524                           
  6525                           ;Config register CONFIG1 @ 0x300000
  6526                           ;	External Oscillator Selection
  6527                           ;	FEXTOSC = OFF, Oscillator not enabled
  6528                           ;	Reset Oscillator Selection
  6529                           ;	RSTOSC = HFINTOSC_1MHZ, HFINTOSC with HFFRQ = 4 MHz and CDIV = 4:1
  6530   300000                     	org	3145728
  6531   300000  EC                 	db	236
  6532                           
  6533                           ;Config register CONFIG2 @ 0x300001
  6534                           ;	Clock out Enable bit
  6535                           ;	CLKOUTEN = OFF, CLKOUT function is disabled
  6536                           ;	PRLOCKED One-Way Set Enable bit
  6537                           ;	PR1WAY = ON, PRLOCKED bit can be cleared and set only once
  6538                           ;	Clock Switch Enable bit
  6539                           ;	CSWEN = ON, Writing to NOSC and NDIV is allowed
  6540                           ;	Fail-Safe Clock Monitor Enable bit
  6541                           ;	FCMEN = ON, Fail-Safe Clock Monitor enabled
  6542   300001                     	org	3145729
  6543   300001  FF                 	db	255
  6544                           
  6545                           ;Config register CONFIG3 @ 0x300002
  6546                           ;	MCLR Enable bit
  6547                           ;	MCLRE = EXTMCLR, If LVP = 0, MCLR pin is MCLR; If LVP = 1, RE3 pin function is MCLR
  6548                           ;	Power-up timer selection bits
  6549                           ;	PWRTS = PWRT_OFF, PWRT is disabled
  6550                           ;	Multi-vector enable bit
  6551                           ;	MVECEN = OFF, Interrupt contoller does not use vector table to prioritze interrupts
  6552                           ;	IVTLOCK bit One-way set enable bit
  6553                           ;	IVT1WAY = ON, IVTLOCKED bit can be cleared and set only once
  6554                           ;	Low Power BOR Enable bit
  6555                           ;	LPBOREN = OFF, Low-Power BOR disabled
  6556                           ;	Brown-out Reset Enable bits
  6557                           ;	BOREN = SBORDIS, Brown-out Reset enabled , SBOREN bit is ignored
  6558   300002                     	org	3145730
  6559   300002  F7                 	db	247
  6560                           
  6561                           ;Config register CONFIG4 @ 0x300003
  6562                           ;	Brown-out Reset Voltage Selection bits
  6563                           ;	BORV = VBOR_1P9, Brown-out Reset Voltage (VBOR) set to 1.9V
  6564                           ;	ZCD Disable bit
  6565                           ;	ZCD = OFF, ZCD module is disabled. ZCD can be enabled by setting the ZCDSEN bit of ZCD
      +                          CON
  6566                           ;	PPSLOCK bit One-Way Set Enable bit
  6567                           ;	PPS1WAY = ON, PPSLOCKED bit can be cleared and set only once; PPS registers remain loc
      +                          ked after one clear/set cycle
  6568                           ;	Stack Full/Underflow Reset Enable bit
  6569                           ;	STVREN = ON, Stack full/underflow will cause Reset
  6570                           ;	Low Voltage Programming Enable bit
  6571                           ;	LVP = ON, Low voltage programming enabled. MCLR/VPP pin function is MCLR. MCLRE config
      +                          uration bit is ignored
  6572                           ;	Extended Instruction Set Enable bit
  6573                           ;	XINST = OFF, Extended Instruction Set and Indexed Addressing Mode disabled
  6574   300003                     	org	3145731
  6575   300003  FF                 	db	255
  6576                           
  6577                           ;Config register CONFIG5 @ 0x300004
  6578                           ;	WDT Period selection bits
  6579                           ;	WDTCPS = WDTCPS_31, Divider ratio 1:65536; software control of WDTPS
  6580                           ;	WDT operating mode
  6581                           ;	WDTE = OFF, WDT Disabled; SWDTEN is ignored
  6582   300004                     	org	3145732
  6583   300004  9F                 	db	159
  6584                           
  6585                           ;Config register CONFIG6 @ 0x300005
  6586                           ;	WDT Window Select bits
  6587                           ;	WDTCWS = WDTCWS_7, window always open (100%); software control; keyed access not requi
      +                          red
  6588                           ;	WDT input clock selector
  6589                           ;	WDTCCS = SC, Software Control
  6590   300005                     	org	3145733
  6591   300005  FF                 	db	255
  6592                           
  6593                           ;Config register CONFIG7 @ 0x300006
  6594                           ;	Boot Block Size selection bits
  6595                           ;	BBSIZE = BBSIZE_512, Boot Block size is 512 words
  6596                           ;	Boot Block enable bit
  6597                           ;	BBEN = OFF, Boot block disabled
  6598                           ;	Storage Area Flash enable bit
  6599                           ;	SAFEN = OFF, SAF disabled
  6600                           ;	Background Debugger
  6601                           ;	DEBUG = OFF, Background Debugger disabled
  6602   300006                     	org	3145734
  6603   300006  FF                 	db	255
  6604                           
  6605                           ;Config register CONFIG8 @ 0x300007
  6606                           ;	Boot Block Write Protection bit
  6607                           ;	WRTB = OFF, Boot Block not Write protected
  6608                           ;	Configuration Register Write Protection bit
  6609                           ;	WRTC = OFF, Configuration registers not Write protected
  6610                           ;	Data EEPROM Write Protection bit
  6611                           ;	WRTD = OFF, Data EEPROM not Write protected
  6612                           ;	SAF Write protection bit
  6613                           ;	WRTSAF = OFF, SAF not Write Protected
  6614                           ;	Application Block write protection bit
  6615                           ;	WRTAPP = OFF, Application Block not write protected
  6616   300007                     	org	3145735
  6617   300007  FF                 	db	255
  6618                           
  6619                           ; Padding undefined space
  6620   300008                     	org	3145736
  6621   300008  FF                 	db	255
  6622                           
  6623                           ;Config register CONFIG10 @ 0x300009
  6624                           ;	PFM and Data EEPROM Code Protection bit
  6625                           ;	CP = OFF, PFM and Data EEPROM code protection disabled
  6626   300009                     	org	3145737
  6627   300009  FF                 	db	255
  6628                           tosu	equ	0x4FF
  6629                           tosh	equ	0x4FE
  6630                           tosl	equ	0x4FD
  6631                           stkptr	equ	0x4FC
  6632                           pclatu	equ	0x4FB
  6633                           pclath	equ	0x4FA
  6634                           pcl	equ	0x4F9
  6635                           tblptru	equ	0x4F8
  6636                           tblptrh	equ	0x4F7
  6637                           tblptrl	equ	0x4F6
  6638                           tablat	equ	0x4F5
  6639                           prodh	equ	0x4F4
  6640                           prodl	equ	0x4F3
  6641                           indf0	equ	0x4EF
  6642                           postinc0	equ	0x4EE
  6643                           postdec0	equ	0x4ED
  6644                           preinc0	equ	0x4EC
  6645                           plusw0	equ	0x4EB
  6646                           fsr0h	equ	0x4EA
  6647                           fsr0l	equ	0x4E9
  6648                           wreg	equ	0x4E8
  6649                           indf1	equ	0x4E7
  6650                           postinc1	equ	0x4E6
  6651                           postdec1	equ	0x4E5
  6652                           preinc1	equ	0x4E4
  6653                           plusw1	equ	0x4E3
  6654                           fsr1h	equ	0x4E2
  6655                           fsr1l	equ	0x4E1
  6656                           bsr	equ	0x4E0
  6657                           indf2	equ	0x4DF
  6658                           postinc2	equ	0x4DE
  6659                           postdec2	equ	0x4DD
  6660                           preinc2	equ	0x4DC
  6661                           plusw2	equ	0x4DB
  6662                           fsr2h	equ	0x4DA
  6663                           fsr2l	equ	0x4D9
  6664                           status	equ	0x4D8

Data Sizes:
    Strings     13
    Constant    0
    Data        0
    BSS         93
    Persistent  0
    Stack       0

Auto Spaces:
    Space          Size  Autos    Used
    COMRAM           95     93      95
    BANK5           160     79      90
    BANK6           256      0      80
    BANK7           256      0       0
    BANK8           256      0       0
    BANK9           256      0       0
    BANK10          256      0       0
    BANK11          256      0       0
    BANK12          256      0       0
    BANK13          256      0       0
    BANK14          256      0       0
    BANK15          256      0       0
    BANK16          256      0       0
    BANK17          256      0       0
    BANK18          256      0       0
    BANK19          256      0       0
    BANK20          256      0       0
    BANK21          256      0       0
    BANK22          256      0       0
    BANK23          256      0       0
    BANK24          256      0       0
    BANK25          256      0       0
    BANK26          256      0       0
    BANK27          256      0       0
    BANK28          256      0       0
    BANK29          256      0       0
    BANK30          256      0       0
    BANK31          256      0       0
    BANK32          256      0       0
    BANK33          256      0       0
    BANK34          256      0       0
    BANK35          256      0       0
    BANK36          256      0       0

Pointer List with Targets:

    strcpy@dest	PTR unsigned char  size(2) Largest target is 80
		 -> dbuf(BANK6[80]), 

    strcpy@d	PTR unsigned char  size(2) Largest target is 80
		 -> dbuf(BANK6[80]), 

    strcpy@src	PTR const unsigned char  size(2) Largest target is 4
		 -> STR_5(CODE[4]), STR_2(CODE[4]), 

    strcpy@s	PTR const unsigned char  size(2) Largest target is 4
		 -> STR_5(CODE[4]), STR_2(CODE[4]), 

    fputs@s	PTR const unsigned char  size(2) Largest target is 80
		 -> dbuf(BANK6[80]), 

    fputs@fp	PTR struct _IO_FILE size(2) Largest target is 11
		 -> sprintf@f(COMRAM[11]), 

    fputc@fp...source	PTR const unsigned char  size(2) Largest target is 0

    fputc@fp...buffer	PTR unsigned char  size(2) Largest target is 0

    fputc@fp	PTR struct _IO_FILE size(2) Largest target is 11
		 -> sprintf@f(COMRAM[11]), 

    memcpy@d1	PTR void  size(2) Largest target is 80
		 -> dbuf(BANK6[80]), 

    memcpy@d	PTR unsigned char  size(2) Largest target is 80
		 -> dbuf(BANK6[80]), 

    memcpy@s1	PTR const void  size(2) Largest target is 80
		 -> dbuf(BANK6[80]), 

    memcpy@s	PTR const unsigned char  size(2) Largest target is 80
		 -> dbuf(BANK6[80]), 

    vfprintf@ap	PTR PTR void  size(2) Largest target is 2
		 -> sprintf@ap(COMRAM[2]), 

    vfprintf@fp	PTR struct _IO_FILE size(2) Largest target is 11
		 -> sprintf@f(COMRAM[11]), 

    vfprintf@fmt	PTR const unsigned char  size(2) Largest target is 5
		 -> STR_1(CODE[5]), 

    vfprintf@cfmt	PTR unsigned char  size(2) Largest target is 5
		 -> STR_1(CODE[5]), 

    vfpfcnvrt@fp	PTR struct _IO_FILE size(2) Largest target is 11
		 -> sprintf@f(COMRAM[11]), 

    vfpfcnvrt@ap	PTR PTR void  size(2) Largest target is 2
		 -> sprintf@ap(COMRAM[2]), 

    vfpfcnvrt@cp	PTR unsigned char  size(2) Largest target is 5
		 -> STR_1(CODE[5]), 

    vfpfcnvrt@fmt	PTR PTR unsigned char  size(2) Largest target is 2
		 -> vfprintf@cfmt(COMRAM[2]), 

    S1099$vp	PTR void  size(2) Largest target is 0

    convarg.vp	PTR void  size(2) Largest target is 0

    sp__memcpy	PTR void  size(2) Largest target is 80
		 -> dbuf(BANK6[80]), 

    efgtoa@fp	PTR struct _IO_FILE size(2) Largest target is 11
		 -> sprintf@f(COMRAM[11]), 

    sp__strcpy	PTR unsigned char  size(2) Largest target is 80
		 -> dbuf(BANK6[80]), 

    pad@buf	PTR unsigned char  size(2) Largest target is 80
		 -> dbuf(BANK6[80]), 

    pad@fp	PTR struct _IO_FILE size(2) Largest target is 11
		 -> sprintf@f(COMRAM[11]), 

    sprintf@fmt	PTR const unsigned char  size(2) Largest target is 5
		 -> STR_1(CODE[5]), 

    sprintf@s	PTR unsigned char  size(2) Largest target is 8
		 -> ADC_ISR@arr(BANK5[8]), 

    sprintf@ap	PTR void [1] size(2) Largest target is 2
		 -> ?_sprintf(BANK5[2]), 

    S1020$source	PTR const unsigned char  size(2) Largest target is 0

    f...source	PTR const unsigned char  size(2) Largest target is 0

    S1020$buffer	PTR unsigned char  size(2) Largest target is 0

    f...buffer	PTR unsigned char  size(2) Largest target is 0


Critical Paths under _main in COMRAM

    None.

Critical Paths under _ADC_ISR in COMRAM

    _ADC_ISR->_sprintf
    _sprintf->_vfprintf
    _vfprintf->_vfpfcnvrt
    _vfpfcnvrt->_efgtoa
    _efgtoa->___flge
    _pad->_fputs
    _fputs->_fputc
    _floorf->___fldiv
    ___flsub->___flmul
    ___flmul->___xxtofl
    ___flge->___flmul

Critical Paths under _main in BANK5

    None.

Critical Paths under _ADC_ISR in BANK5

    _ADC_ISR->_sprintf
    _sprintf->_vfprintf
    _vfprintf->_vfpfcnvrt
    _vfpfcnvrt->_efgtoa

Critical Paths under _main in BANK6

    None.

Critical Paths under _ADC_ISR in BANK6

    None.

Critical Paths under _main in BANK7

    None.

Critical Paths under _ADC_ISR in BANK7

    None.

Critical Paths under _main in BANK8

    None.

Critical Paths under _ADC_ISR in BANK8

    None.

Critical Paths under _main in BANK9

    None.

Critical Paths under _ADC_ISR in BANK9

    None.

Critical Paths under _main in BANK10

    None.

Critical Paths under _ADC_ISR in BANK10

    None.

Critical Paths under _main in BANK11

    None.

Critical Paths under _ADC_ISR in BANK11

    None.

Critical Paths under _main in BANK12

    None.

Critical Paths under _ADC_ISR in BANK12

    None.

Critical Paths under _main in BANK13

    None.

Critical Paths under _ADC_ISR in BANK13

    None.

Critical Paths under _main in BANK14

    None.

Critical Paths under _ADC_ISR in BANK14

    None.

Critical Paths under _main in BANK15

    None.

Critical Paths under _ADC_ISR in BANK15

    None.

Critical Paths under _main in BANK16

    None.

Critical Paths under _ADC_ISR in BANK16

    None.

Critical Paths under _main in BANK17

    None.

Critical Paths under _ADC_ISR in BANK17

    None.

Critical Paths under _main in BANK18

    None.

Critical Paths under _ADC_ISR in BANK18

    None.

Critical Paths under _main in BANK19

    None.

Critical Paths under _ADC_ISR in BANK19

    None.

Critical Paths under _main in BANK20

    None.

Critical Paths under _ADC_ISR in BANK20

    None.

Critical Paths under _main in BANK21

    None.

Critical Paths under _ADC_ISR in BANK21

    None.

Critical Paths under _main in BANK22

    None.

Critical Paths under _ADC_ISR in BANK22

    None.

Critical Paths under _main in BANK23

    None.

Critical Paths under _ADC_ISR in BANK23

    None.

Critical Paths under _main in BANK24

    None.

Critical Paths under _ADC_ISR in BANK24

    None.

Critical Paths under _main in BANK25

    None.

Critical Paths under _ADC_ISR in BANK25

    None.

Critical Paths under _main in BANK26

    None.

Critical Paths under _ADC_ISR in BANK26

    None.

Critical Paths under _main in BANK27

    None.

Critical Paths under _ADC_ISR in BANK27

    None.

Critical Paths under _main in BANK28

    None.

Critical Paths under _ADC_ISR in BANK28

    None.

Critical Paths under _main in BANK29

    None.

Critical Paths under _ADC_ISR in BANK29

    None.

Critical Paths under _main in BANK30

    None.

Critical Paths under _ADC_ISR in BANK30

    None.

Critical Paths under _main in BANK31

    None.

Critical Paths under _ADC_ISR in BANK31

    None.

Critical Paths under _main in BANK32

    None.

Critical Paths under _ADC_ISR in BANK32

    None.

Critical Paths under _main in BANK33

    None.

Critical Paths under _ADC_ISR in BANK33

    None.

Critical Paths under _main in BANK34

    None.

Critical Paths under _ADC_ISR in BANK34

    None.

Critical Paths under _main in BANK35

    None.

Critical Paths under _ADC_ISR in BANK35

    None.

Critical Paths under _main in BANK36

    None.

Critical Paths under _ADC_ISR in BANK36

    None.

Call Graph Tables:

 ---------------------------------------------------------------------------------
 (Depth) Function   	        Calls       Base Space   Used Autos Params    Refs
 ---------------------------------------------------------------------------------
 (0) _main                                                 0     0      0       0
 ---------------------------------------------------------------------------------
 Estimated maximum stack depth 0
 ---------------------------------------------------------------------------------
 (Depth) Function   	        Calls       Base Space   Used Autos Params    Refs
 ---------------------------------------------------------------------------------
 (1) _ADC_ISR                                             20    20      0   23988
                                             88 COMRAM     5     5      0
                                             64 BANK5     15    15      0
                            ___flmul
                           ___xxtofl
                            _sprintf
 ---------------------------------------------------------------------------------
 (2) _sprintf                                             23    15      8   20771
                                             75 COMRAM    13    13      0
                                             56 BANK5      8     0      8
                           _vfprintf
 ---------------------------------------------------------------------------------
 (3) _vfprintf                                             8     2      6   20418
                                             73 COMRAM     2     2      0
                                             50 BANK5      6     0      6
                          _vfpfcnvrt
 ---------------------------------------------------------------------------------
 (4) _vfpfcnvrt                                           23    17      6   20068
                                             60 COMRAM    13    13      0
                                             44 BANK5      6     0      6
                             _efgtoa
                              _fputc
 ---------------------------------------------------------------------------------
 (5) _efgtoa                                              54    47      7   18733
                                             51 COMRAM     9     2      7
                                              0 BANK5     44    44      0
                            ___fladd
                            ___fldiv
                             ___fleq
                             ___flge
                            ___flmul
                            ___flneg
                            ___flsub
                            ___fltol
                      ___fpclassifyf
                             _floorf
                               _labs
                             _memcpy
                                _pad
                             _strcpy
 ---------------------------------------------------------------------------------
 (6) _strcpy                                               8     4      4     400
                                              0 COMRAM     8     4      4
 ---------------------------------------------------------------------------------
 (6) _pad                                                 11     5      6    2455
                                             16 COMRAM    11     5      6
                              _fputc
                              _fputs
 ---------------------------------------------------------------------------------
 (7) _fputs                                                7     3      4     931
                                              9 COMRAM     7     3      4
                              _fputc
 ---------------------------------------------------------------------------------
 (5) _fputc                                                9     5      4     682
                                              0 COMRAM     9     5      4
                              _putch
 ---------------------------------------------------------------------------------
 (6) _putch                                                1     1      0       0
 ---------------------------------------------------------------------------------
 (6) _memcpy                                              11     5      6     371
                                              0 COMRAM    11     5      6
 ---------------------------------------------------------------------------------
 (6) _labs                                                 8     4      4     294
                                              0 COMRAM     8     4      4
 ---------------------------------------------------------------------------------
 (6) _floorf                                              20    16      4     490
                                             25 COMRAM    20    16      4
                            ___fldiv (ARG)
 ---------------------------------------------------------------------------------
 (6) ___fpclassifyf                                       14    10      4     287
                                              0 COMRAM    14    10      4
 ---------------------------------------------------------------------------------
 (6) ___fltol                                             10     6      4     457
                                              0 COMRAM    10     6      4
 ---------------------------------------------------------------------------------
 (6) ___flsub                                              8     0      8    2889
                                             39 COMRAM     8     0      8
                            ___fladd
                            ___flmul (ARG)
 ---------------------------------------------------------------------------------
 (7) ___fladd                                             16     8      8    2414
                                              0 COMRAM    16     8      8
 ---------------------------------------------------------------------------------
 (6) ___flneg                                              4     0      4     121
                                              0 COMRAM     4     0      4
 ---------------------------------------------------------------------------------
 (6) ___flmul                                             25    17      8    2656
                                             14 COMRAM    25    17      8
                           ___xxtofl (ARG)
 ---------------------------------------------------------------------------------
 (6) ___flge                                              12     4      8     790
                                             39 COMRAM    12     4      8
                            ___flmul (ARG)
 ---------------------------------------------------------------------------------
 (6) ___fleq                                              12     4      8     646
                                              0 COMRAM    12     4      8
 ---------------------------------------------------------------------------------
 (6) ___fldiv                                             25    17      8    2007
                                              0 COMRAM    25    17      8
 ---------------------------------------------------------------------------------
 (2) ___xxtofl                                            14    10      4     398
                                              0 COMRAM    14    10      4
 ---------------------------------------------------------------------------------
 Estimated maximum stack depth 7
 ---------------------------------------------------------------------------------

 Call Graph Graphs:

 _main (ROOT)

 _ADC_ISR (ROOT)
   ___flmul
     ___xxtofl (ARG)
   ___xxtofl
   _sprintf
     _vfprintf
       _vfpfcnvrt
         _efgtoa
           ___fladd
           ___fldiv
           ___fleq
           ___flge
             ___flmul (ARG)
           ___flmul
           ___flneg
           ___flsub
             ___fladd
             ___flmul (ARG)
           ___fltol
           ___fpclassifyf
           _floorf
             ___fldiv (ARG)
           _labs
           _memcpy
           _pad
             _fputc
               _putch
             _fputs
               _fputc
           _strcpy
         _fputc

 Address spaces:
Name               Size   Autos  Total    Cost      Usage
BIGRAM            1FFF      0       0      70        0.0%
EEDATA             400      0       0       0        0.0%
BITBIGSFRllllll    175      0       0      90        0.0%
BITBIGSFRllllll    13A      0       0      85        0.0%
BITBIGSFR_1        100      0       0      69        0.0%
BITBANK36          100      0       0      67        0.0%
BANK36             100      0       0      68        0.0%
BITBANK35          100      0       0      65        0.0%
BANK35             100      0       0      66        0.0%
BITBANK34          100      0       0      63        0.0%
BANK34             100      0       0      64        0.0%
BITBANK33          100      0       0      61        0.0%
BANK33             100      0       0      62        0.0%
BITBANK32          100      0       0      59        0.0%
BANK32             100      0       0      60        0.0%
BITBANK31          100      0       0      57        0.0%
BANK31             100      0       0      58        0.0%
BITBANK30          100      0       0      55        0.0%
BANK30             100      0       0      56        0.0%
BITBANK29          100      0       0      52        0.0%
BANK29             100      0       0      53        0.0%
BITBANK28          100      0       0      50        0.0%
BANK28             100      0       0      51        0.0%
BITBANK27          100      0       0      48        0.0%
BANK27             100      0       0      49        0.0%
BITBANK26          100      0       0      46        0.0%
BANK26             100      0       0      47        0.0%
BITBANK25          100      0       0      44        0.0%
BANK25             100      0       0      45        0.0%
BITBANK24          100      0       0      42        0.0%
BANK24             100      0       0      43        0.0%
BITBANK23          100      0       0      40        0.0%
BANK23             100      0       0      41        0.0%
BITBANK22          100      0       0      38        0.0%
BANK22             100      0       0      39        0.0%
BITBANK21          100      0       0      36        0.0%
BANK21             100      0       0      37        0.0%
BITBANK20          100      0       0      34        0.0%
BANK20             100      0       0      35        0.0%
BITBANK19          100      0       0      32        0.0%
BANK19             100      0       0      33        0.0%
BITBANK18          100      0       0      30        0.0%
BANK18             100      0       0      31        0.0%
BITBANK17          100      0       0      28        0.0%
BANK17             100      0       0      29        0.0%
BITBANK16          100      0       0      26        0.0%
BANK16             100      0       0      27        0.0%
BITBANK15          100      0       0      24        0.0%
BANK15             100      0       0      25        0.0%
BITBANK14          100      0       0      22        0.0%
BANK14             100      0       0      23        0.0%
BITBANK13          100      0       0      20        0.0%
BANK13             100      0       0      21        0.0%
BITBANK12          100      0       0      18        0.0%
BANK12             100      0       0      19        0.0%
BITBANK11          100      0       0      16        0.0%
BANK11             100      0       0      17        0.0%
BITBANK10          100      0       0      14        0.0%
BANK10             100      0       0      15        0.0%
BITBANK9           100      0       0      12        0.0%
BANK9              100      0       0      13        0.0%
BITBANK8           100      0       0      10        0.0%
BANK8              100      0       0      11        0.0%
BITBANK7           100      0       0       8        0.0%
BANK7              100      0       0       9        0.0%
BITBANK6           100      0       0       6        0.0%
BANK6              100      0      50       7       31.2%
BITBANK5            A0      0       0       4        0.0%
BANK5               A0     4F      5A       5       56.2%
BITBIGSFRllhhhl     72      0       0      76        0.0%
BITBIGSFRllllll     60      0       0      95        0.0%
BITCOMRAM           5F      0       0       0        0.0%
COMRAM              5F     5D      5F       1      100.0%
BITBIGSFRllllll     5C      0       0      89        0.0%
BITBIGSFRllllll     43      0       0      93        0.0%
BITBIGSFRhhh        29      0       0      71        0.0%
BITBIGSFRllllll     19      0       0      88        0.0%
BITBIGSFRllhhhl      F      0       0      75        0.0%
BITBIGSFRllhhhh      E      0       0      74        0.0%
BITBIGSFRhhl         A      0       0      72        0.0%
BITBIGSFRllllll      7      0       0      82        0.0%
BITBIGSFRllllll      7      0       0      87        0.0%
BITBIGSFRllllll      6      0       0      84        0.0%
BITBIGSFRllllll      4      0       0      83        0.0%
BITBIGSFRlllllh      3      0       0      81        0.0%
BITBIGSFRllhhl       3      0       0      77        0.0%
BITBIGSFRllllh       3      0       0      80        0.0%
BITBIGSFRlllh        3      0       0      79        0.0%
BITBIGSFRllhl        3      0       0      78        0.0%
BITBIGSFRhll         2      0       0      73        0.0%
BITBIGSFRllllll      1      0       0      86        0.0%
BITBIGSFRllllll      1      0       0      94        0.0%
BITBIGSFRllllll      1      0       0      91        0.0%
BITBIGSFRllllll      1      0       0      92        0.0%
BIGSFR_1             0      0       0     200        0.0%
BIGSFR               0      0       0     200        0.0%
BITSFR_6             0      0       0     200        0.0%
SFR_6                0      0       0     200        0.0%
BITSFR_5             0      0       0     200        0.0%
SFR_5                0      0       0     200        0.0%
BITSFR_4             0      0       0     200        0.0%
SFR_4                0      0       0     200        0.0%
BITSFR_3             0      0       0     200        0.0%
SFR_3                0      0       0     200        0.0%
BITSFR_2             0      0       0     200        0.0%
SFR_2                0      0       0     200        0.0%
BITSFR_1             0      0       0     200        0.0%
SFR_1                0      0       0     200        0.0%
BITSFR               0      0       0     200        0.0%
SFR                  0      0       0     200        0.0%
STACK                0      0       0       2        0.0%
NULL                 0      0       0       0        0.0%
ABS                  0      0     109      54        0.0%
DATA                 0      0     109       3        0.0%
CODE                 0      0       0       0        0.0%


Microchip Technology PIC18 Macro Assembler V2.40 build 20220703182018 
Symbol Table                                                                                   Sat Dec 03 13:34:30 2022

           ___fldiv@aexp 0519             ___fldiv@bexp 0518             ___fldiv@sign 0511  
                    l191 4A0E                      l192 4A0E                      _pad 47F2  
        __end_of_ADC_ISR 467E                      wreg 0004E8             ___flmul@aexp 0520  
           ___flmul@bexp 0521             ___flmul@sign 051B             ___flmul@temp 0526  
           ___flmul@prod 0522             ___fltol@exp1 050A                     l3531 49E6  
                   l3523 49CA                     l3541 49FC                     l3533 49E8  
                   l3525 49D0                     l3543 49FE                     l3535 49EA  
                   l3527 49DE                     l3545 4A08                     l3537 49EC  
                   l3529 49E0                     l3547 4A0A                     l3539 49EE  
                   l3549 4A0C                     ?_pad 0511                     _ADIF 00257A  
                   STR_1 2601                     STR_2 2606                     STR_5 260A  
                   _LATA 0004BE                     _LATB 0004BF                     _LATC 0004C0  
                   _LATD 0004C1                     _LATE 0004C2                     _LATF 0004C3  
                   _PMD0 000060                     _PMD1 000061                     _PMD3 000063  
                   _PMD4 000064                     _PMD5 000065                     _PMD6 000066  
                   _PMD7 000067                     _PMD8 000068                     _WPUA 000401  
                   _WPUB 000409                     _WPUC 000411                     _WPUD 000419  
                   _WPUE 000421                     _WPUF 000429                     _dbuf 0600  
                   _labs 486C                     _main 49CA                     _prec 055E  
                   pad@i 0518                     pad@p 0515                     fsr1h 0004E2  
                   fsr2h 0004DA                     indf2 0004DF                     fsr1l 0004E1  
                   pad@w 051A                     fsr2l 0004D9            ___fpclassifyf 4490  
                   prodh 0004F4                     prodl 0004F3                     start 001A  
        ___fldiv@new_exp 0512             ___param_bank 000000                    ??_pad 0517  
          ___fltol@sign1 0509                    ?_labs 0501          __end_of___fladd 34CC  
                  ?_main 0501                    _ADPCH 0003EC          __end_of___fldiv 3C90  
        __end_of___flneg 4B1C          __end_of___flmul 38F6          __end_of___flsub 4A5C  
        __end_of___fltol 438C                    _U1BRG 0002AE                    _U1TXB 0002A3  
                  i2l184 461C                    i2l185 466A                    i2l186 466C  
                  i2l462 4448                    i2l471 4B1A                    i2l456 47F0  
                  i2l467 448E                    i2l811 3590                    i2l820 37FE  
                  i2l821 37EC                    i2l725 31FA                    i2l742 3314  
                  i2l734 34CA                    i2l726 31E8                    i2l494 438A  
                  i2l815 38F4                    i2l751 33E4                    i2l727 31AE  
                  i2l752 33D2                    i2l920 300A                    i2l905 4814  
                  i2l818 3786                    i2l923 29A2                    i2l852 4128  
                  i2l828 38B6                    i2l781 3AEE                    i2l909 486A  
                  i2l925 27E8                    i2l790 3B34                    i2l855 4284  
                  i2l767 4A5A                    i2l792 3BAC                    i2l784 3AB2  
                  i2l793 3B9A                    i2l953 2DEC                    i2l866 421C  
                  i2l859 41C0                    i2l779 3C8E                    i2l875 4978  
                  i2l980 3EBE                    i2l987 4926                    i2l997 458C  
                  _OSCEN 0000B3             vfpfcnvrt@fmt 058E                    _TRISA 0004C6  
                  _TRISB 0004C7                    _TRISC 0004C8                    _TRISD 0004C9  
                  _TRISE 0004CA                    _TRISF 0004CB                    _flags 05B9  
                  _fputc 467E                    _fputs 4AA0                    labs@a 0501  
                  pad@fp 0511                    _width 05B7                    _putch 4B4C  
                  tablat 0004F5                    status 0004D8          __end_of_sprintf 497A  
         ?___fpclassifyf 0501          __initialization 4B1C             __end_of_labs 48D2  
           __end_of_main 4A16                ??_ADC_ISR 0559                   ??_labs 0505  
                 ??_main 0000            __activetblptr 000003                   ?_fputc 0501  
                 _ACTCON 0000AC                   ?_fputs 050A                   _ADRESH 0003EB  
                 _ANSELA 000400                   ?_putch 0501                   _ANSELB 000408  
                 _ANSELC 000410                   _ANSELD 000418                   _ANSELE 000420  
                 _ANSELF 000428                   _RB1I2C 000289                   _RB2I2C 000288  
                 _RC3I2C 000287                   _RC4I2C 000286                   _ODCONA 000402  
                 _ODCONB 00040A                   _RF0PPS 000229                   _ODCONC 000412  
                 _ODCOND 00041A                   _ODCONE 000422                   _ODCONF 00042A  
                 i2l1004 40D0                   i2l1007 4014                   i2l1015 48C0  
                 i2l1024 49C8                   i2l1018 48D0                   i2l1036 4746  
                 i2l1044 4AE2                   i2l1053 4A9E                   i2l1047 4B4C  
                 i2l3001 2774                   i2l3003 277C                   i2l3011 2798  
                 i2l2301 3038                   i2l3101 2D28                   i2l3021 2832  
                 i2l3013 27B2                   i2l2311 3072                   i2l2303 3048  
                 i2l3111 2DC2                   i2l3103 2D30                   i2l3031 2928  
                 i2l3023 2870                   i2l2401 323C                   i2l2321 30A0  
                 i2l2313 3078                   i2l2305 3058                   i2l3121 2E20  
                 i2l3113 2DE2                   i2l3105 2D36                   i2l3041 29B8  
                 i2l3033 2930                   i2l3025 28A2                   i2l3017 27F8  
                 i2l2411 3276                   i2l2403 324A                   i2l2331 30D4  
                 i2l2323 30A2                   i2l2315 308A                   i2l2307 305A  
                 i2l3131 2E48                   i2l3123 2E26                   i2l3115 2DFE  
                 i2l3107 2D3E                   i2l3051 29EE                   i2l3043 29C4  
                 i2l3027 28E0                   i2l3019 27FE                   i2l3203 3DD4  
                 i2l3301 41F2                   i2l2421 32E2                   i2l2413 3278  
                 i2l2405 3258                   i2l2341 3110                   i2l2325 30B2  
                 i2l2333 30DC                   i2l2317 308C                   i2l2309 3062  
                 i2l2501 4AC2                   i2l3141 2E7C                   i2l3125 2E2E  
                 i2l3117 2E0C                   i2l3133 2E4E                   i2l3109 2D4A  
                 i2l3061 2A36                   i2l3053 29FC                   i2l3045 29CE  
                 i2l3029 28F4                   i2l3037 2970                   i2l3213 3E50  
                 i2l3205 3DFE                   i2l3311 4230                   i2l3303 41FE  
                 i2l2511 3922                   i2l2503 38F6                   i2l2431 333A  
                 i2l2423 32E4                   i2l2415 3282                   i2l2407 3264  
                 i2l2351 3124                   i2l2343 3114                   i2l2335 30EC  
                 i2l2327 30C2                   i2l2319 3092                   i2l3151 2F32  
                 i2l3143 2ED4                   i2l3135 2E60                   i2l3127 2E3E  
                 i2l3119 2E1C                   i2l3071 2B4A                   i2l3063 2A46  
                 i2l3055 2A14                   i2l3047 29D6                   i2l3039 29AA  
                 i2l3207 3E1E                   i2l3215 3E80                   i2l3313 4254  
                 i2l3305 420C                   i2l2601 3B56                   i2l2521 395C  
                 i2l2513 3932                   i2l2505 3902                   i2l2441 3368  
                 i2l2425 32F4                   i2l2409 3268                   i2l2417 3288  
                 i2l2361 3138                   i2l2353 3128                   i2l2345 3118  
                 i2l2337 30FE                   i2l2329 30D2                   i2l2281 4690  
                 i2l3161 2FA4                   i2l3153 2F4E                   i2l3145 2F08  
                 i2l3137 2E72                   i2l3129 2E42                   i2l3081 2BEA  
                 i2l3065 2A5A                   i2l3073 2B50                   i2l3057 2A26  
                 i2l3049 29DC                   i2l3315 4264                   i2l3307 422A  
                 i2l2611 3BC8                   i2l2603 3B64                   i2l2531 3988  
                 i2l2523 3962                   i2l2515 3942                   i2l2507 3910  
                 i2l2443 3376                   i2l2435 334E                   i2l2451 3394  
                 i2l2419 32AE                   i2l2427 3304                   i2l2363 313C  
                 i2l2355 312C                   i2l2347 311C                   i2l2339 310C  
                 i2l2371 314C                   i2l2283 46A2                   i2l3163 2FBC  
                 i2l3155 2F56                   i2l3147 2F10                   i2l3139 2E76  
                 i2l3091 2CC6                   i2l3083 2C1C                   i2l3075 2B6E  
                 i2l3067 2ABE                   i2l3059 2A2E                   i2l3219 3E92  
                 i2l3323 459E                   i2l3317 4272                   i2l3309 422C  
                 i2l2621 3C34                   i2l2613 3BD6                   i2l2605 3B92  
                 i2l2541 39C2                   i2l2533 3998                   i2l2525 3968  
                 i2l2517 3944                   i2l2509 3912                   i2l2701 3656  
                 i2l2445 337E                   i2l2437 3358                   i2l2429 332A  
                 i2l2453 33A2                   i2l2381 31BC                   i2l2373 3150  
                 i2l2365 3140                   i2l2357 3130                   i2l2349 3120  
                 i2l2293 300C                   i2l2285 46AC                   i2l3165 2FCC  
                 i2l3157 2F66                   i2l3149 2F14                   i2l3093 2CCC  
                 i2l3085 2C2C                   i2l3077 2BA2                   i2l3069 2B16  
                 i2l3181 3CD8                   i2l3173 3C90                   i2l3261 491C  
                 i2l3341 4648                   i2l3325 45A6                   i2l3319 4274  
                 i2l2631 3C82                   i2l2623 3C4E                   i2l2615 3C00  
                 i2l2543 39D8                   i2l2535 39A8                   i2l2527 3976  
                 i2l2519 394C                   i2l2711 36B8                   i2l2703 3662  
                 i2l2463 33F4                   i2l2471 344A                   i2l2455 33A6  
                 i2l2447 3382                   i2l2439 3366                   i2l2391 31E6  
                 i2l2383 31C8                   i2l2375 317A                   i2l2367 3144  
                 i2l2359 3134                   i2l2295 3018                   i2l2287 46CA  
                 i2l2279 467E                   i2l3167 2FE2                   i2l3159 2F96  
                 i2l3095 2D00                   i2l3087 2C3C                   i2l3079 2BD4  
                 i2l3183 3CE8                   i2l3175 3CB8                   i2l3255 48D2  
                 i2l3271 4948                   i2l3343 464E                   i2l3335 4620  
                 i2l3327 45EC                   i2l3281 40F2                   i2l2633 3C84  
                 i2l2625 3C6A                   i2l2609 3BBC                   i2l2617 3C04  
                 i2l2561 3A2C                   i2l2545 39E8                   i2l2553 3A08  
                 i2l2537 39AA                   i2l2529 3978                   i2l2801 4408  
                 i2l2721 374E                   i2l2713 36C4                   i2l2705 3672  
                 i2l2641 34CC                   i2l2481 349C                   i2l2473 345A  
                 i2l2465 3400                   i2l2457 33B4                   i2l2449 3392  
                 i2l2393 3208                   i2l2385 31CC                   i2l2377 3196  
                 i2l2369 3148                   i2l2297 3026                   i2l2289 4700  
                 i2l3169 2FEA                   i2l3097 2D14                   i2l3089 2C70  
                 i2l3185 3CFE                   i2l3193 3D16                   i2l3177 3CC6  
                 i2l3257 48DE                   i2l3273 4966                   i2l3265 4928  
                 i2l3337 4634                   i2l3329 4612                   i2l3291 416A  
                 i2l3283 4138                   i2l2627 3C6E                   i2l2619 3C1E  
                 i2l2571 3A7E                   i2l2563 3A46                   i2l2555 3A18  
                 i2l2547 39F0                   i2l2539 39B2                   i2l2811 448C  
                 i2l2803 4416                   i2l2731 37A4                   i2l2723 376C  
                 i2l2715 36E0                   i2l2707 368C                   i2l2651 3508  
                 i2l2643 34D8                   i2l2491 34BA                   i2l2483 34A2  
                 i2l2475 346A                   i2l2467 340E                   i2l2459 33CA  
                 i2l2395 3218                   i2l2387 31DA                   i2l2379 31A6  
                 i2l2299 3028                   i2l3099 2D18                   i2l3187 3D06  
                 i2l3195 3D48                   i2l3179 3CD4                   i2l3259 48FC  
                 i2l3267 4938                   i2l3339 4644                   i2l3293 4176  
                 i2l3285 414E                   i2l3277 40D4                   i2l2629 3C7C  
                 i2l2581 3ADA                   i2l2573 3A8E                   i2l2565 3A56  
                 i2l2557 3A18                   i2l2549 39F4                   i2l2805 4428  
                 i2l2741 380E                   i2l2733 37A8                   i2l2725 3776  
                 i2l2717 370A                   i2l2709 369C                   i2l2661 353A  
                 i2l2653 3518                   i2l2645 34E6                   i2l2485 34A4  
                 i2l2477 348A                   i2l2469 3448                   i2l2389 31DC  
                 i2l3197 3D6C                   i2l3701 3D2A                   i2l3189 3D0E  
                 i2l3269 4940                   i2l3295 41A8                   i2l3279 40E4  
                 i2l2591 3B1A                   i2l2583 3ADC                   i2l2575 3AA2  
                 i2l2567 3A66                   i2l2807 4436                   i2l2751 3870  
                 i2l2743 381A                   i2l2735 37B6                   i2l2727 3784  
                 i2l2719 3740                   i2l2671 357A                   i2l2663 3548  
                 i2l2655 351E                   i2l2647 34E8                   i2l2815 4AE4  
                 i2l2487 34AA                   i2l2479 348E                   i2l2399 322C  
                 i2l2831 42DA                   i2l2823 4286                   i2l2911 3EC0  
                 i2l2495 4AA0                   i2l2903 4A5C                   i2l3703 3DE8  
                 i2l3199 3DA0                   i2l3297 41AA                   i2l3289 4162  
                 i2l2593 3B24                   i2l2585 3AEC                   i2l2577 3AB0  
                 i2l2569 3A76                   i2l2809 4486                   i2l2761 38D8  
                 i2l2753 3884                   i2l2745 3828                   i2l2737 37E4  
                 i2l2729 3796                   i2l2681 35C4                   i2l2673 3580  
                 i2l2665 354A                   i2l2657 352E                   i2l2649 34F8  
                 i2l2817 4AFA                   i2l2489 34B8                   i2l2833 42DC  
                 i2l2825 429C                   i2l2913 3EE0                   i2l2497 4AAC  
                 i2l2905 4A6C                   i2l3705 3E72                   i2l3299 41B6  
                 i2l2595 3B32                   i2l2587 3AFE                   i2l2579 3ABC  
                 i2l2763 38DA                   i2l2755 389E                   i2l2747 3852  
                 i2l2691 3614                   i2l2683 35D0                   i2l2675 35A0  
                 i2l2667 355A                   i2l2659 3534                   i2l2819 4B0A  
                 i2l2771 4A16                   i2l2835 42EC                   i2l2931 4088  
                 i2l2923 3FC8                   i2l2915 3F36                   i2l2907 486C  
                 i2l2499 4ABE                   i2l2589 3B14                   i2l2597 3B44  
                 i2l2781 4786                   i2l2757 38BA                   i2l2765 38E0  
                 i2l2749 3856                   i2l2693 3620                   i2l2685 35DA  
                 i2l2677 35B0                   i2l2669 356A                   i2l2773 4A26  
                 i2l2861 436A                   i2l2845 4316                   i2l2837 42F0  
                 i2l2829 42B0                   i2l2933 40B0                   i2l2925 4004  
                 i2l2917 3F4A                   i2l2909 488A                   i2l2941 498E  
                 i2l2599 3B52                   i2l2783 47B4                   i2l2767 38E4  
                 i2l2759 38CA                   i2l2695 362C                   i2l2687 35F0  
                 i2l2863 437A                   i2l2855 433E                   i2l2847 4320  
                 i2l2839 42FE                   i2l2935 40C0                   i2l2919 3F58  
                 i2l2927 4038                   i2l2943 499A                   i2l2871 480C  
                 i2l2951 2610                   i2l2785 47C4                   i2l2777 4748  
                 i2l2793 438C                   i2l2697 363A                   i2l2689 35FC  
                 i2l2857 434A                   i2l2849 432A                   i2l2881 4490  
                 i2l2929 4074                   i2l2945 499E                   i2l2873 4820  
                 i2l2961 265C                   i2l2953 2616                   _INLVLA 000404  
                 _INLVLB 00040C                   i2l2787 47E8                   i2l2779 4776  
                 i2l2795 43BA                   i2l2699 3646                   i2l2859 435A  
                 i2l2883 44B0                   i2l2947 49AA                   i2l2939 497A  
                 i2l2875 4834                   i2l2867 47F2                   i2l2971 269A  
                 i2l2963 2666                   i2l2955 2626                   _INLVLC 000414  
                 _INLVLD 00041C                   i2l2789 47EE                   i2l2797 43CA  
                 i2l2885 44EE                   i2l2893 452E                   i2l2949 49AE  
                 i2l2877 4838                   i2l2869 4800                   i2l2981 26E2  
                 i2l2973 26A2                   i2l2965 266E                   i2l2957 2634  
                 _INLVLE 000424                   _INLVLF 00042C                   i2l2799 43F8  
                 i2l2895 4540                   i2l2887 4516                   i2l2879 4856  
                 i2l2983 26E8                   i2l2967 267E                   i2l2975 26A6  
                 i2l2959 2638                   i2l2889 4522                   i2l2985 26F0  
                 i2l2977 26CC                   i2l2993 2732                   i2l2969 268E  
                 i2l2899 4584                   i2l2995 2758                   i2l2987 2708  
                 i2l2979 26DE                   i2l2997 276A                   i2l2989 2712  
                 i2l2999 276E                   _OSCFRQ 0000B1         __end_of___xxtofl 4286  
           vfprintf@cfmt 054A                   ___flge 438C                   ___fleq 4748  
              ??___fladd 0509                ??___fldiv 0509                ??___flneg 0505  
              ??___flmul 0517                ??___flsub 0530                ??___fltol 0505  
                 _efgtoa 2610                   _floorf 3EC0                   _memcpy 497A  
                 clear_0 4B22                   clear_1 4B2E                   isa$std 000001  
                 pad@buf 0513                   _strcpy 4A5C                   fputc@c 0501  
                 fputs@c 050E                   fputs@i 050F                   fputs@s 050A  
        ___fpclassifyf@e 0509          ___fpclassifyf@u 050B          ___fpclassifyf@x 0501  
           __mediumconst 0000                   tblptrh 0004F7                   tblptrl 0004F6  
                 tblptru 0004F8                   putch@c 0501         __end_of_vfprintf 4928  
              ??_sprintf 054C               ___flge@ff1 0528               ___flge@ff2 052C  
        ??___fpclassifyf 0505             ___xxtofl@arg 050B             ___xxtofl@exp 050A  
           ___xxtofl@val 0501               ___fleq@ff1 0501               ___fleq@ff2 0505  
             __accesstop 0560  __end_of__initialization 4B46               ___flneg@f1 0501  
          ___rparam_used 000001               ___fltol@f1 0501           __pcstackCOMRAM 0501  
          __end_of_fputc 4748            __end_of_fputs 4AE4            __end_of_putch 4B4E  
                ??_fputc 0505                  ??_fputs 050E                  ??_putch 0501  
             __pbssBANK5 05AF               __pbssBANK6 0600               ADC_ISR@arr 05A0  
             ADC_ISR@var 05AC                  IVTBASEH 00045E                  IVTBASEL 00045D  
             ADC_ISR@str 05A8                  IVTBASEU 00045F                  ?___flge 0528  
                ?___fleq 0501                  ?_efgtoa 0534                  ?_floorf 051A  
                ?_memcpy 0501                  _ADC_ISR 458E                  ?_strcpy 0501  
              ?___xxtofl 0501                  _OSCCON1 0000AD                  _OSCCON3 0000AF  
                _OSCTUNE 0000B0                  _SLRCONA 000403                  _SLRCONB 00040B  
                _SLRCONC 000413                  _SLRCOND 00041B                  _SLRCONE 000423  
                _SLRCONF 00042B                _ADREFbits 0003F8                  __Hparam 0000  
                __Lparam 0000                  ___fladd 300C                  ___fldiv 38F6  
                ___flneg 4AE4                  ___flmul 34CC                  ___flsub 4A16  
                ___fltol 4286                ?_vfprintf 0592             __psmallconst 2600  
                __pcinit 4B1C                  __ramtop 2600                  __ptext0 49CA  
                __ptext1 458E                  __ptext2 4928                  __ptext3 48D2  
                __ptext4 3C90                  __ptext5 2610                  __ptext6 4A5C  
                __ptext7 47F2                  __ptext8 4AA0                  __ptext9 467E  
             ??___xxtofl 0505                  efgtoa@c 053A                  efgtoa@d 056B  
                efgtoa@e 056F                  efgtoa@f 0536                  efgtoa@g 0584  
                efgtoa@h 0579                  efgtoa@i 0577                  efgtoa@l 057D  
                efgtoa@m 056D                  efgtoa@n 0582                  efgtoa@p 0562  
                efgtoa@t 0564                  efgtoa@u 0588                  efgtoa@w 0571  
                _sprintf 4928     end_of_initialization 4B46                  floorf@e 0528  
                floorf@m 0524                  floorf@u 052A                  floorf@x 051A  
                memcpy@d 0507                  memcpy@n 0505                  memcpy@s 0509  
                fputc@fp 0503                  fputs@fp 050C        __end_of_vfpfcnvrt 3EC0  
             efgtoa@mode 0569               efgtoa@sign 0581                  postdec2 0004DD  
                postinc0 0004EE                  postinc1 0004E6                  postinc2 0004DE  
       vfpfcnvrt@convarg 053F               ??_vfprintf 054A                  strcpy@d 0507  
                strcpy@s 0505              ___fladd@grs 0510            ___xxtofl@sign 0509  
              _TRISAbits 0004C6                _TRISFbits 0004CB              ___fldiv@grs 0514  
            ___fldiv@rem 050D              ___flmul@grs 051C           __end_of___flge 4490  
         __end_of___fleq 47F2              vfpfcnvrt@ap 0590              vfpfcnvrt@cp 0548  
            vfpfcnvrt@fp 058C           __end_of_efgtoa 300C           __end_of_floorf 40D2  
         __end_of_memcpy 49CA               floorf@F526 05AF           __end_of_strcpy 4AA0  
    start_initialization 4B1C              __end_of_pad 486C               ivt0x8_base 0008  
               ADC_ISR@i 05AD    __end_of___fpclassifyf 458E              vfprintf@fmt 0594  
               ??___flge 0530                 ??___fleq 0509                 ??_efgtoa 053B  
               ??_floorf 051E                 ??_memcpy 0507                 ?_ADC_ISR 0501  
               ??_strcpy 0505                ___fladd@a 0505                ___fladd@b 0501  
              ___fldiv@a 0505                ___fldiv@b 0501                ___flmul@a 0513  
              ___flmul@b 050F              __pbssCOMRAM 055E                ___flsub@a 052C  
              ___flsub@b 0528            __pcstackBANK5 0560            __pcstackBANK6 0000  
            _efgtoa$1148 0566                 ?___fladd 0501                 ?___fldiv 0501  
               ?___flneg 0501                 ?___flmul 050F                 ?___flsub 0528  
               ?___fltol 0501              __smallconst 2600                 ?_sprintf 0598  
               _PIE1bits 00049F                 i2u200_40 3376                 i2u200_41 3372  
               i2u201_40 3392                 i2u201_41 338E                 i2u210_40 346A  
               i2u202_40 33A2                 i2u210_41 3466                 i2u202_41 339E  
               i2u211_40 348A                 i2u203_40 33B4                 i2u211_41 3486  
               i2u203_41 33B0                 i2u220_40 3998                 i2u212_40 349C  
               i2u204_40 33CA                 i2u300_40 2758                 i2u220_41 3994  
               i2u212_41 3498                 i2u204_41 33C6                 i2u300_41 2754  
               i2u221_40 39D8                 i2u213_40 34B8                 i2u205_40 33E0  
               i2u301_40 276A                 i2u221_41 39D4                 i2u213_41 34B4  
               i2u205_41 33DC                 i2u301_41 2766                 i2u230_40 3B64  
               i2u222_40 3A18                 i2u206_40 33F4                 i2u214_40 4AE2  
               i2u310_40 29FC                 i2u302_40 27E4                 i2u230_41 3B60  
               i2u222_41 3A14                 i2u206_41 33F0                 i2u214_41 4ADE  
               i2u310_41 29F8                 i2u302_41 27E0                 i2u231_40 3B92  
               i2u223_40 3A8E                 i2u215_40 3910                 i2u207_40 340E  
               i2u311_40 2A26                 i2u303_40 2870                 i2u231_41 3B8E  
               i2u223_41 3A8A                 i2u215_41 390C                 i2u207_41 340A  
               i2u311_41 2A22                 i2u303_41 286C                 i2u232_40 3BA8  
               i2u224_40 3AB0                 i2u216_40 3922                 i2u240_40 3508  
               i2u208_40 3448                 i2u320_40 2E0C                 i2u312_40 2B6E  
               i2u304_40 28A2                 i2u232_41 3BA4                 i2u224_41 3AAC  
               i2u216_41 391E                 i2u240_41 3504                 i2u208_41 3444  
               i2u320_41 2E08                 i2u312_41 2B6A                 i2u304_41 289E  
               i2u233_40 3BBC                 i2u225_40 3ADA                 i2u217_40 3932  
               i2u241_40 3548                 i2u209_40 345A                 i2u321_40 2E60  
               i2u313_40 2BD4                 i2u305_40 28E0                 i2u233_41 3BB8  
               i2u225_41 3AD6                 i2u217_41 392E                 i2u241_41 3544  
               i2u209_41 3456                 i2u321_41 2E5C                 i2u313_41 2BD0  
               i2u305_41 28DC                 i2u330_40 40E4                 i2u234_40 3BD6  
               i2u226_40 3AFE                 i2u218_40 3976                 i2u250_40 37E4  
               i2u242_40 355A                 i2u322_40 2F32                 i2u314_40 2C1C  
               i2u306_40 296C                 i2u330_41 40E0                 i2u234_41 3BD2  
               i2u226_41 3AFA                 i2u218_41 3972                 i2u250_41 37E0  
               i2u242_41 3556                 i2u322_41 2F2E                 i2u314_41 2C18  
               i2u306_41 2968                 i2u331_40 40F2                 i2u235_40 3C1E  
               i2u227_40 3B14                 i2u219_40 3988                 i2u251_40 37FA  
               i2u243_40 356A                 i2u171_40 4690                 i2u323_40 2F4E  
               i2u315_40 2C2C                 i2u307_40 29A2                 i2u331_41 40EE  
               i2u235_41 3C1A                 i2u227_41 3B10                 i2u219_41 3984  
               i2u251_41 37F6                 i2u243_41 3566                 i2u171_41 468C  
               i2u323_41 2F4A                 i2u315_41 2C28                 i2u307_41 299E  
               i2u332_40 414E                 i2u236_40 3C4E                 i2u228_40 3B32  
               i2u260_40 43BA                 i2u252_40 380E                 i2u244_40 35A0  
               i2u180_40 30B2                 i2u172_40 46A2                 i2u324_40 2FB6  
               i2u316_40 2CC6                 i2u308_40 29B8                 i2u340_40 466A  
               i2u332_41 414A                 i2u236_41 3C4A                 i2u228_41 3B2E  
               i2u260_41 43B6                 i2u252_41 380A                 i2u244_41 359C  
               i2u180_41 30AE                 i2u172_41 469E                 i2u324_41 2FB0  
               i2u316_41 2CC2                 i2u308_41 29B4                 i2u340_41 4666  
               i2u333_40 41A4                 i2u237_40 3C7C                 i2u229_40 3B52  
               i2u261_40 43F8                 i2u253_40 3828                 i2u245_40 35B0  
               i2u181_40 30C2                 i2u173_40 46CA                 i2u325_40 2FB8  
               i2u317_40 2D14                 i2u309_40 29EE                 i2u333_41 41A0  
               i2u237_41 3C78                 i2u229_41 3B4E                 i2u261_41 43F4  
               i2u253_41 3824                 i2u245_41 35AC                 i2u181_41 30BE  
               i2u173_41 46C6                 i2u317_41 2D10                 i2u309_41 29EA  
               i2u341_47 463A                 i2u334_40 41EE                 i2u262_40 4416  
               i2u254_40 3870                 i2u246_40 372A                 i2u238_40 34E6  
               i2u190_40 3208                 i2u182_40 30FE                 i2u270_40 433A  
               i2u174_40 4700                 i2u326_40 2FCC                 i2u318_40 2DC2  
               i2u334_41 41EA                 i2u262_41 4412                 i2u254_41 386C  
               i2u238_41 34E2                 i2u190_41 3204                 i2u182_41 30FA  
               i2u270_41 4336                 i2u174_41 46FC                 i2u326_41 2FC8  
               i2u318_41 2DBE                 i2u246_45 3720                 i2u335_40 420C  
               i2u263_40 4436                 i2u255_40 389E                 i2u247_40 3784  
               i2u239_40 34F8                 i2u191_40 3218                 i2u183_40 310C  
               i2u175_40 3026                 i2u271_40 435A                 i2u319_40 2DFE  
               i2u327_40 3CB8                 i2u335_41 4208                 i2u263_41 4432  
               i2u255_41 389A                 i2u247_41 3780                 i2u239_41 34F4  
               i2u191_41 3214                 i2u183_41 3108                 i2u175_41 3022  
               i2u271_41 4356                 i2u319_41 2DFA                 i2u327_41 3CB4  
               i2u336_40 421C                 i2u264_40 4486                 i2u256_40 38D8  
               i2u248_40 37A4                 i2u192_40 324A                 i2u184_40 317A  
               i2u176_40 3038                 i2u272_40 436A                 i2u280_40 457A  
               i2u328_40 3D68                 i2u336_41 4218                 i2u264_41 4482  
               i2u256_41 38D4                 i2u248_41 37A0                 i2u192_41 3246  
               i2u184_41 3176                 i2u176_41 3034                 i2u272_41 4366  
               i2u280_41 4574                 i2u328_41 3D64                 i2u337_40 422A  
               i2u257_40 4776                 i2u249_40 37B6                 i2u265_40 4AFA  
               i2u193_40 3258                 i2u185_40 3192                 i2u177_40 3048  
               i2u281_40 457C                 i2u273_40 4800                 i2u329_40 491C  
               i2u337_41 4226                 i2u257_41 4772                 i2u249_41 37B2  
               i2u265_41 4AF6                 i2u193_41 3254                 i2u185_41 318C  
               i2u177_41 3044                 i2u273_41 47FC                 i2u329_41 4918  
               i2u338_40 4264                 i2u258_40 47B4                 i2u194_40 3276  
               i2u186_40 3194                 i2u178_40 308A                 i2u266_40 429C  
               i2u290_40 4004                 i2u274_40 4856                 i2u282_40 4A9E  
               i2u338_41 4260                 i2u258_41 47B0                 i2u194_41 3272  
               i2u178_41 3086                 i2u266_41 4298                 i2u290_41 4000  
               i2u274_41 4852                 i2u282_41 4A9A                 i2u339_40 4272  
               i2u259_40 47E8                 i2u195_40 32AE                 i2u187_40 31BC  
               i2u179_40 30A0                 i2u267_40 42D0                 i2u275_40 44D0  
               i2u291_40 4058                 i2u283_40 488A                 i2u339_41 426E  
               i2u259_41 47E4                 i2u195_41 32AA                 i2u187_41 31B8  
               i2u179_41 309C                 i2u283_41 4886                 i2u267_45 42C6  
               i2u275_45 44C6                 i2u291_45 404E                 i2u196_40 32F4  
               i2u188_40 31DA                 i2u268_40 42FE                 i2u276_40 44EE  
               i2u292_40 4074                 i2u284_40 3F08                 i2u196_41 32F0  
               i2u188_41 31D6                 i2u268_41 42FA                 i2u276_41 44EA  
               i2u292_41 4070                 i2u284_45 3EFE                 i2u197_40 332A  
               i2u189_40 31FA                 i2u269_40 4312                 i2u277_40 4516  
               i2u293_40 40B0                 i2u285_40 3F36                 i2u197_41 3326  
               i2u189_41 31F6                 i2u269_41 430E                 i2u277_41 4512  
               i2u293_41 40AC                 i2u285_41 3F32                 i2u198_40 333A  
               i2u278_40 4540                 i2u286_40 3F58                 i2u294_40 49C8  
               i2u198_41 3336                 i2u278_41 453C                 i2u286_41 3F54  
               i2u294_41 49C4                 i2u199_40 3366                 i2u295_40 2634  
               i2u199_41 3362                 i2u295_41 2630                 i2u279_45 4552  
               i2u287_45 3F6C                 i2u287_46 3F76                 i2u287_47 3F86  
               i2u288_40 3FC4                 i2u296_40 267E                 i2u288_41 3FC0  
               i2u296_41 267A                 i2u289_40 3FE8                 i2u297_40 268E  
               i2u297_41 268A                 i2u289_45 3FDE                 i2u298_40 26CC  
               i2u298_41 26C8                 i2u299_40 26DE                 i2u299_41 26DA  
              _vfpfcnvrt 3C90               _ADCON0bits 0003F3               vfpfcnvrt@c 0547  
            _INTCON0bits 0004D6                 __Hrparam 0000                memcpy@tmp 050B  
             vfprintf@ap 0596                 __Lrparam 0000               vfprintf@fp 0592  
             ?_vfpfcnvrt 058C               _ANSELAbits 000400       ___fpclassifyf@F465 05B3  
             _ANSELFbits 000428               sprintf@fmt 059A                 ___xxtofl 40D2  
               __pivt0x8 0008                 __ptext10 4B4C                 __ptext11 497A  
               __ptext20 438C                 __ptext12 486C                 __ptext21 4748  
               __ptext13 3EC0                 __ptext22 38F6                 __ptext14 4490  
               __ptext23 40D2                 __ptext15 4286                 __ptext16 4A16  
               __ptext17 300C                 __ptext18 4AE4                 __ptext19 34CC  
             _U1CON0bits 0002AB               _U1CON1bits 0002AC               _U1FIFObits 0002B0  
             strcpy@dest 0501                 efgtoa@fp 0534                 efgtoa@ne 0560  
               efgtoa@pp 0568                 efgtoa@ou 0573                 isa$xinst 000000  
               _vfprintf 48D2                 memcpy@d1 0501                 memcpy@s1 0503  
               intlevel2 0000                sprintf@ap 054C                strcpy@src 0503  
            efgtoa@nmode 056A              ??_vfpfcnvrt 053D                 sprintf@f 054E  
               sprintf@s 0598            ___fladd@signs 050D             ___fladd@aexp 050E  
           ___fladd@bexp 050F  
